
mirrors:     file format elf64-x86-64


Disassembly of section .init:

0000000000400c88 <_init>:
  400c88:	48 83 ec 08          	sub    $0x8,%rsp
  400c8c:	e8 6b 02 00 00       	callq  400efc <call_gmon_start>
  400c91:	e8 fa 02 00 00       	callq  400f90 <frame_dummy>
  400c96:	e8 05 23 00 00       	callq  402fa0 <__do_global_ctors_aux>
  400c9b:	48 83 c4 08          	add    $0x8,%rsp
  400c9f:	c3                   	retq   

Disassembly of section .plt:

0000000000400ca0 <scrollok@plt-0x10>:
  400ca0:	ff 35 52 35 20 00    	pushq  0x203552(%rip)        # 6041f8 <_GLOBAL_OFFSET_TABLE_+0x8>
  400ca6:	ff 25 54 35 20 00    	jmpq   *0x203554(%rip)        # 604200 <_GLOBAL_OFFSET_TABLE_+0x10>
  400cac:	0f 1f 40 00          	nopl   0x0(%rax)

0000000000400cb0 <scrollok@plt>:
  400cb0:	ff 25 52 35 20 00    	jmpq   *0x203552(%rip)        # 604208 <_GLOBAL_OFFSET_TABLE_+0x18>
  400cb6:	68 00 00 00 00       	pushq  $0x0
  400cbb:	e9 e0 ff ff ff       	jmpq   400ca0 <_init+0x18>

0000000000400cc0 <printf@plt>:
  400cc0:	ff 25 4a 35 20 00    	jmpq   *0x20354a(%rip)        # 604210 <_GLOBAL_OFFSET_TABLE_+0x20>
  400cc6:	68 01 00 00 00       	pushq  $0x1
  400ccb:	e9 d0 ff ff ff       	jmpq   400ca0 <_init+0x18>

0000000000400cd0 <ftell@plt>:
  400cd0:	ff 25 42 35 20 00    	jmpq   *0x203542(%rip)        # 604218 <_GLOBAL_OFFSET_TABLE_+0x28>
  400cd6:	68 02 00 00 00       	pushq  $0x2
  400cdb:	e9 c0 ff ff ff       	jmpq   400ca0 <_init+0x18>

0000000000400ce0 <newwin@plt>:
  400ce0:	ff 25 3a 35 20 00    	jmpq   *0x20353a(%rip)        # 604220 <_GLOBAL_OFFSET_TABLE_+0x30>
  400ce6:	68 03 00 00 00       	pushq  $0x3
  400ceb:	e9 b0 ff ff ff       	jmpq   400ca0 <_init+0x18>

0000000000400cf0 <puts@plt>:
  400cf0:	ff 25 32 35 20 00    	jmpq   *0x203532(%rip)        # 604228 <_GLOBAL_OFFSET_TABLE_+0x38>
  400cf6:	68 04 00 00 00       	pushq  $0x4
  400cfb:	e9 a0 ff ff ff       	jmpq   400ca0 <_init+0x18>

0000000000400d00 <fseek@plt>:
  400d00:	ff 25 2a 35 20 00    	jmpq   *0x20352a(%rip)        # 604230 <_GLOBAL_OFFSET_TABLE_+0x40>
  400d06:	68 05 00 00 00       	pushq  $0x5
  400d0b:	e9 90 ff ff ff       	jmpq   400ca0 <_init+0x18>

0000000000400d10 <exit@plt>:
  400d10:	ff 25 22 35 20 00    	jmpq   *0x203522(%rip)        # 604238 <_GLOBAL_OFFSET_TABLE_+0x48>
  400d16:	68 06 00 00 00       	pushq  $0x6
  400d1b:	e9 80 ff ff ff       	jmpq   400ca0 <_init+0x18>

0000000000400d20 <endwin@plt>:
  400d20:	ff 25 1a 35 20 00    	jmpq   *0x20351a(%rip)        # 604240 <_GLOBAL_OFFSET_TABLE_+0x50>
  400d26:	68 07 00 00 00       	pushq  $0x7
  400d2b:	e9 70 ff ff ff       	jmpq   400ca0 <_init+0x18>

0000000000400d30 <malloc@plt>:
  400d30:	ff 25 12 35 20 00    	jmpq   *0x203512(%rip)        # 604248 <_GLOBAL_OFFSET_TABLE_+0x58>
  400d36:	68 08 00 00 00       	pushq  $0x8
  400d3b:	e9 60 ff ff ff       	jmpq   400ca0 <_init+0x18>

0000000000400d40 <fopen@plt>:
  400d40:	ff 25 0a 35 20 00    	jmpq   *0x20350a(%rip)        # 604250 <_GLOBAL_OFFSET_TABLE_+0x60>
  400d46:	68 09 00 00 00       	pushq  $0x9
  400d4b:	e9 50 ff ff ff       	jmpq   400ca0 <_init+0x18>

0000000000400d50 <__libc_start_main@plt>:
  400d50:	ff 25 02 35 20 00    	jmpq   *0x203502(%rip)        # 604258 <_GLOBAL_OFFSET_TABLE_+0x68>
  400d56:	68 0a 00 00 00       	pushq  $0xa
  400d5b:	e9 40 ff ff ff       	jmpq   400ca0 <_init+0x18>

0000000000400d60 <pthread_mutex_init@plt>:
  400d60:	ff 25 fa 34 20 00    	jmpq   *0x2034fa(%rip)        # 604260 <_GLOBAL_OFFSET_TABLE_+0x70>
  400d66:	68 0b 00 00 00       	pushq  $0xb
  400d6b:	e9 30 ff ff ff       	jmpq   400ca0 <_init+0x18>

0000000000400d70 <initscr@plt>:
  400d70:	ff 25 f2 34 20 00    	jmpq   *0x2034f2(%rip)        # 604268 <_GLOBAL_OFFSET_TABLE_+0x78>
  400d76:	68 0c 00 00 00       	pushq  $0xc
  400d7b:	e9 20 ff ff ff       	jmpq   400ca0 <_init+0x18>

0000000000400d80 <pthread_create@plt>:
  400d80:	ff 25 ea 34 20 00    	jmpq   *0x2034ea(%rip)        # 604270 <_GLOBAL_OFFSET_TABLE_+0x80>
  400d86:	68 0d 00 00 00       	pushq  $0xd
  400d8b:	e9 10 ff ff ff       	jmpq   400ca0 <_init+0x18>

0000000000400d90 <sprintf@plt>:
  400d90:	ff 25 e2 34 20 00    	jmpq   *0x2034e2(%rip)        # 604278 <_GLOBAL_OFFSET_TABLE_+0x88>
  400d96:	68 0e 00 00 00       	pushq  $0xe
  400d9b:	e9 00 ff ff ff       	jmpq   400ca0 <_init+0x18>

0000000000400da0 <wrefresh@plt>:
  400da0:	ff 25 da 34 20 00    	jmpq   *0x2034da(%rip)        # 604280 <_GLOBAL_OFFSET_TABLE_+0x90>
  400da6:	68 0f 00 00 00       	pushq  $0xf
  400dab:	e9 f0 fe ff ff       	jmpq   400ca0 <_init+0x18>

0000000000400db0 <usleep@plt>:
  400db0:	ff 25 d2 34 20 00    	jmpq   *0x2034d2(%rip)        # 604288 <_GLOBAL_OFFSET_TABLE_+0x98>
  400db6:	68 10 00 00 00       	pushq  $0x10
  400dbb:	e9 e0 fe ff ff       	jmpq   400ca0 <_init+0x18>

0000000000400dc0 <strerror@plt>:
  400dc0:	ff 25 ca 34 20 00    	jmpq   *0x2034ca(%rip)        # 604290 <_GLOBAL_OFFSET_TABLE_+0xa0>
  400dc6:	68 11 00 00 00       	pushq  $0x11
  400dcb:	e9 d0 fe ff ff       	jmpq   400ca0 <_init+0x18>

0000000000400dd0 <pthread_exit@plt>:
  400dd0:	ff 25 c2 34 20 00    	jmpq   *0x2034c2(%rip)        # 604298 <_GLOBAL_OFFSET_TABLE_+0xa8>
  400dd6:	68 12 00 00 00       	pushq  $0x12
  400ddb:	e9 c0 fe ff ff       	jmpq   400ca0 <_init+0x18>

0000000000400de0 <atoi@plt>:
  400de0:	ff 25 ba 34 20 00    	jmpq   *0x2034ba(%rip)        # 6042a0 <_GLOBAL_OFFSET_TABLE_+0xb0>
  400de6:	68 13 00 00 00       	pushq  $0x13
  400deb:	e9 b0 fe ff ff       	jmpq   400ca0 <_init+0x18>

0000000000400df0 <memcpy@plt>:
  400df0:	ff 25 b2 34 20 00    	jmpq   *0x2034b2(%rip)        # 6042a8 <_GLOBAL_OFFSET_TABLE_+0xb8>
  400df6:	68 14 00 00 00       	pushq  $0x14
  400dfb:	e9 a0 fe ff ff       	jmpq   400ca0 <_init+0x18>

0000000000400e00 <fread@plt>:
  400e00:	ff 25 aa 34 20 00    	jmpq   *0x2034aa(%rip)        # 6042b0 <_GLOBAL_OFFSET_TABLE_+0xc0>
  400e06:	68 15 00 00 00       	pushq  $0x15
  400e0b:	e9 90 fe ff ff       	jmpq   400ca0 <_init+0x18>

0000000000400e10 <wprintw@plt>:
  400e10:	ff 25 a2 34 20 00    	jmpq   *0x2034a2(%rip)        # 6042b8 <_GLOBAL_OFFSET_TABLE_+0xc8>
  400e16:	68 16 00 00 00       	pushq  $0x16
  400e1b:	e9 80 fe ff ff       	jmpq   400ca0 <_init+0x18>

0000000000400e20 <__errno_location@plt>:
  400e20:	ff 25 9a 34 20 00    	jmpq   *0x20349a(%rip)        # 6042c0 <_GLOBAL_OFFSET_TABLE_+0xd0>
  400e26:	68 17 00 00 00       	pushq  $0x17
  400e2b:	e9 70 fe ff ff       	jmpq   400ca0 <_init+0x18>

0000000000400e30 <strcmp@plt>:
  400e30:	ff 25 92 34 20 00    	jmpq   *0x203492(%rip)        # 6042c8 <_GLOBAL_OFFSET_TABLE_+0xd8>
  400e36:	68 18 00 00 00       	pushq  $0x18
  400e3b:	e9 60 fe ff ff       	jmpq   400ca0 <_init+0x18>

0000000000400e40 <srand@plt>:
  400e40:	ff 25 8a 34 20 00    	jmpq   *0x20348a(%rip)        # 6042d0 <_GLOBAL_OFFSET_TABLE_+0xe0>
  400e46:	68 19 00 00 00       	pushq  $0x19
  400e4b:	e9 50 fe ff ff       	jmpq   400ca0 <_init+0x18>

0000000000400e50 <wborder@plt>:
  400e50:	ff 25 82 34 20 00    	jmpq   *0x203482(%rip)        # 6042d8 <_GLOBAL_OFFSET_TABLE_+0xe8>
  400e56:	68 1a 00 00 00       	pushq  $0x1a
  400e5b:	e9 40 fe ff ff       	jmpq   400ca0 <_init+0x18>

0000000000400e60 <calloc@plt>:
  400e60:	ff 25 7a 34 20 00    	jmpq   *0x20347a(%rip)        # 6042e0 <_GLOBAL_OFFSET_TABLE_+0xf0>
  400e66:	68 1b 00 00 00       	pushq  $0x1b
  400e6b:	e9 30 fe ff ff       	jmpq   400ca0 <_init+0x18>

0000000000400e70 <pthread_mutex_lock@plt>:
  400e70:	ff 25 72 34 20 00    	jmpq   *0x203472(%rip)        # 6042e8 <_GLOBAL_OFFSET_TABLE_+0xf8>
  400e76:	68 1c 00 00 00       	pushq  $0x1c
  400e7b:	e9 20 fe ff ff       	jmpq   400ca0 <_init+0x18>

0000000000400e80 <rand@plt>:
  400e80:	ff 25 6a 34 20 00    	jmpq   *0x20346a(%rip)        # 6042f0 <_GLOBAL_OFFSET_TABLE_+0x100>
  400e86:	68 1d 00 00 00       	pushq  $0x1d
  400e8b:	e9 10 fe ff ff       	jmpq   400ca0 <_init+0x18>

0000000000400e90 <wclear@plt>:
  400e90:	ff 25 62 34 20 00    	jmpq   *0x203462(%rip)        # 6042f8 <_GLOBAL_OFFSET_TABLE_+0x108>
  400e96:	68 1e 00 00 00       	pushq  $0x1e
  400e9b:	e9 00 fe ff ff       	jmpq   400ca0 <_init+0x18>

0000000000400ea0 <wscanw@plt>:
  400ea0:	ff 25 5a 34 20 00    	jmpq   *0x20345a(%rip)        # 604300 <_GLOBAL_OFFSET_TABLE_+0x110>
  400ea6:	68 1f 00 00 00       	pushq  $0x1f
  400eab:	e9 f0 fd ff ff       	jmpq   400ca0 <_init+0x18>

0000000000400eb0 <pthread_mutex_unlock@plt>:
  400eb0:	ff 25 52 34 20 00    	jmpq   *0x203452(%rip)        # 604308 <_GLOBAL_OFFSET_TABLE_+0x118>
  400eb6:	68 20 00 00 00       	pushq  $0x20
  400ebb:	e9 e0 fd ff ff       	jmpq   400ca0 <_init+0x18>

0000000000400ec0 <time@plt>:
  400ec0:	ff 25 4a 34 20 00    	jmpq   *0x20344a(%rip)        # 604310 <_GLOBAL_OFFSET_TABLE_+0x120>
  400ec6:	68 21 00 00 00       	pushq  $0x21
  400ecb:	e9 d0 fd ff ff       	jmpq   400ca0 <_init+0x18>

Disassembly of section .text:

0000000000400ed0 <_start>:
  400ed0:	31 ed                	xor    %ebp,%ebp
  400ed2:	49 89 d1             	mov    %rdx,%r9
  400ed5:	5e                   	pop    %rsi
  400ed6:	48 89 e2             	mov    %rsp,%rdx
  400ed9:	48 83 e4 f0          	and    $0xfffffffffffffff0,%rsp
  400edd:	50                   	push   %rax
  400ede:	54                   	push   %rsp
  400edf:	49 c7 c0 00 2f 40 00 	mov    $0x402f00,%r8
  400ee6:	48 c7 c1 10 2f 40 00 	mov    $0x402f10,%rcx
  400eed:	48 c7 c7 52 11 40 00 	mov    $0x401152,%rdi
  400ef4:	e8 57 fe ff ff       	callq  400d50 <__libc_start_main@plt>
  400ef9:	f4                   	hlt    
  400efa:	90                   	nop
  400efb:	90                   	nop

0000000000400efc <call_gmon_start>:
  400efc:	48 83 ec 08          	sub    $0x8,%rsp
  400f00:	48 8b 05 e1 32 20 00 	mov    0x2032e1(%rip),%rax        # 6041e8 <_DYNAMIC+0x1c0>
  400f07:	48 85 c0             	test   %rax,%rax
  400f0a:	74 02                	je     400f0e <call_gmon_start+0x12>
  400f0c:	ff d0                	callq  *%rax
  400f0e:	48 83 c4 08          	add    $0x8,%rsp
  400f12:	c3                   	retq   
  400f13:	90                   	nop
  400f14:	90                   	nop
  400f15:	90                   	nop
  400f16:	90                   	nop
  400f17:	90                   	nop
  400f18:	90                   	nop
  400f19:	90                   	nop
  400f1a:	90                   	nop
  400f1b:	90                   	nop
  400f1c:	90                   	nop
  400f1d:	90                   	nop
  400f1e:	90                   	nop
  400f1f:	90                   	nop

0000000000400f20 <__do_global_dtors_aux>:
  400f20:	55                   	push   %rbp
  400f21:	48 89 e5             	mov    %rsp,%rbp
  400f24:	53                   	push   %rbx
  400f25:	48 83 ec 08          	sub    $0x8,%rsp
  400f29:	80 3d 18 36 20 00 00 	cmpb   $0x0,0x203618(%rip)        # 604548 <completed.6349>
  400f30:	75 4b                	jne    400f7d <__do_global_dtors_aux+0x5d>
  400f32:	bb 18 40 60 00       	mov    $0x604018,%ebx
  400f37:	48 8b 05 12 36 20 00 	mov    0x203612(%rip),%rax        # 604550 <dtor_idx.6351>
  400f3e:	48 81 eb 10 40 60 00 	sub    $0x604010,%rbx
  400f45:	48 c1 fb 03          	sar    $0x3,%rbx
  400f49:	48 83 eb 01          	sub    $0x1,%rbx
  400f4d:	48 39 d8             	cmp    %rbx,%rax
  400f50:	73 24                	jae    400f76 <__do_global_dtors_aux+0x56>
  400f52:	66 0f 1f 44 00 00    	nopw   0x0(%rax,%rax,1)
  400f58:	48 83 c0 01          	add    $0x1,%rax
  400f5c:	48 89 05 ed 35 20 00 	mov    %rax,0x2035ed(%rip)        # 604550 <dtor_idx.6351>
  400f63:	ff 14 c5 10 40 60 00 	callq  *0x604010(,%rax,8)
  400f6a:	48 8b 05 df 35 20 00 	mov    0x2035df(%rip),%rax        # 604550 <dtor_idx.6351>
  400f71:	48 39 d8             	cmp    %rbx,%rax
  400f74:	72 e2                	jb     400f58 <__do_global_dtors_aux+0x38>
  400f76:	c6 05 cb 35 20 00 01 	movb   $0x1,0x2035cb(%rip)        # 604548 <completed.6349>
  400f7d:	48 83 c4 08          	add    $0x8,%rsp
  400f81:	5b                   	pop    %rbx
  400f82:	c9                   	leaveq 
  400f83:	c3                   	retq   
  400f84:	66 66 66 2e 0f 1f 84 	data32 data32 nopw %cs:0x0(%rax,%rax,1)
  400f8b:	00 00 00 00 00 

0000000000400f90 <frame_dummy>:
  400f90:	48 83 3d 88 30 20 00 	cmpq   $0x0,0x203088(%rip)        # 604020 <__JCR_END__>
  400f97:	00 
  400f98:	55                   	push   %rbp
  400f99:	48 89 e5             	mov    %rsp,%rbp
  400f9c:	74 12                	je     400fb0 <frame_dummy+0x20>
  400f9e:	b8 00 00 00 00       	mov    $0x0,%eax
  400fa3:	48 85 c0             	test   %rax,%rax
  400fa6:	74 08                	je     400fb0 <frame_dummy+0x20>
  400fa8:	bf 20 40 60 00       	mov    $0x604020,%edi
  400fad:	c9                   	leaveq 
  400fae:	ff e0                	jmpq   *%rax
  400fb0:	c9                   	leaveq 
  400fb1:	c3                   	retq   
  400fb2:	90                   	nop
  400fb3:	90                   	nop

0000000000400fb4 <htoi>:
  400fb4:	55                   	push   %rbp
  400fb5:	48 89 e5             	mov    %rsp,%rbp
  400fb8:	48 89 7d e8          	mov    %rdi,-0x18(%rbp)
  400fbc:	48 83 7d e8 00       	cmpq   $0x0,-0x18(%rbp)
  400fc1:	75 07                	jne    400fca <htoi+0x16>
  400fc3:	b8 00 00 00 00       	mov    $0x0,%eax
  400fc8:	eb 7b                	jmp    401045 <htoi+0x91>
  400fca:	48 8b 45 e8          	mov    -0x18(%rbp),%rax
  400fce:	0f b6 00             	movzbl (%rax),%eax
  400fd1:	3c 30                	cmp    $0x30,%al
  400fd3:	75 20                	jne    400ff5 <htoi+0x41>
  400fd5:	48 83 45 e8 01       	addq   $0x1,-0x18(%rbp)
  400fda:	48 8b 45 e8          	mov    -0x18(%rbp),%rax
  400fde:	0f b6 00             	movzbl (%rax),%eax
  400fe1:	3c 78                	cmp    $0x78,%al
  400fe3:	74 0b                	je     400ff0 <htoi+0x3c>
  400fe5:	48 8b 45 e8          	mov    -0x18(%rbp),%rax
  400fe9:	0f b6 00             	movzbl (%rax),%eax
  400fec:	3c 58                	cmp    $0x58,%al
  400fee:	75 05                	jne    400ff5 <htoi+0x41>
  400ff0:	48 83 45 e8 01       	addq   $0x1,-0x18(%rbp)
  400ff5:	c7 45 fc 00 00 00 00 	movl   $0x0,-0x4(%rbp)
  400ffc:	eb 39                	jmp    401037 <htoi+0x83>
  400ffe:	c1 65 fc 04          	shll   $0x4,-0x4(%rbp)
  401002:	48 8b 45 e8          	mov    -0x18(%rbp),%rax
  401006:	0f b6 00             	movzbl (%rax),%eax
  401009:	3c 39                	cmp    $0x39,%al
  40100b:	7f 12                	jg     40101f <htoi+0x6b>
  40100d:	48 8b 45 e8          	mov    -0x18(%rbp),%rax
  401011:	0f b6 00             	movzbl (%rax),%eax
  401014:	0f be c0             	movsbl %al,%eax
  401017:	83 e0 0f             	and    $0xf,%eax
  40101a:	09 45 fc             	or     %eax,-0x4(%rbp)
  40101d:	eb 13                	jmp    401032 <htoi+0x7e>
  40101f:	48 8b 45 e8          	mov    -0x18(%rbp),%rax
  401023:	0f b6 00             	movzbl (%rax),%eax
  401026:	0f be c0             	movsbl %al,%eax
  401029:	83 e0 0f             	and    $0xf,%eax
  40102c:	83 c0 09             	add    $0x9,%eax
  40102f:	09 45 fc             	or     %eax,-0x4(%rbp)
  401032:	48 83 45 e8 01       	addq   $0x1,-0x18(%rbp)
  401037:	48 8b 45 e8          	mov    -0x18(%rbp),%rax
  40103b:	0f b6 00             	movzbl (%rax),%eax
  40103e:	84 c0                	test   %al,%al
  401040:	75 bc                	jne    400ffe <htoi+0x4a>
  401042:	8b 45 fc             	mov    -0x4(%rbp),%eax
  401045:	c9                   	leaveq 
  401046:	c3                   	retq   

0000000000401047 <loader>:
  401047:	55                   	push   %rbp
  401048:	48 89 e5             	mov    %rsp,%rbp
  40104b:	53                   	push   %rbx
  40104c:	48 83 ec 48          	sub    $0x48,%rsp
  401050:	48 89 7d c8          	mov    %rdi,-0x38(%rbp)
  401054:	48 89 75 c0          	mov    %rsi,-0x40(%rbp)
  401058:	89 55 bc             	mov    %edx,-0x44(%rbp)
  40105b:	ba f8 2f 40 00       	mov    $0x402ff8,%edx
  401060:	48 8b 45 c0          	mov    -0x40(%rbp),%rax
  401064:	48 89 d6             	mov    %rdx,%rsi
  401067:	48 89 c7             	mov    %rax,%rdi
  40106a:	e8 d1 fc ff ff       	callq  400d40 <fopen@plt>
  40106f:	48 89 45 d8          	mov    %rax,-0x28(%rbp)
  401073:	48 83 7d d8 00       	cmpq   $0x0,-0x28(%rbp)
  401078:	75 34                	jne    4010ae <loader+0x67>
  40107a:	e8 a1 fd ff ff       	callq  400e20 <__errno_location@plt>
  40107f:	8b 00                	mov    (%rax),%eax
  401081:	89 c7                	mov    %eax,%edi
  401083:	e8 38 fd ff ff       	callq  400dc0 <strerror@plt>
  401088:	48 89 c2             	mov    %rax,%rdx
  40108b:	b8 fa 2f 40 00       	mov    $0x402ffa,%eax
  401090:	48 8b 4d c0          	mov    -0x40(%rbp),%rcx
  401094:	48 89 ce             	mov    %rcx,%rsi
  401097:	48 89 c7             	mov    %rax,%rdi
  40109a:	b8 00 00 00 00       	mov    $0x0,%eax
  40109f:	e8 1c fc ff ff       	callq  400cc0 <printf@plt>
  4010a4:	bf ff ff ff ff       	mov    $0xffffffff,%edi
  4010a9:	e8 62 fc ff ff       	callq  400d10 <exit@plt>
  4010ae:	48 8b 45 d8          	mov    -0x28(%rbp),%rax
  4010b2:	ba 00 00 00 00       	mov    $0x0,%edx
  4010b7:	be 00 00 00 00       	mov    $0x0,%esi
  4010bc:	48 89 c7             	mov    %rax,%rdi
  4010bf:	e8 3c fc ff ff       	callq  400d00 <fseek@plt>
  4010c4:	48 8b 45 d8          	mov    -0x28(%rbp),%rax
  4010c8:	ba 02 00 00 00       	mov    $0x2,%edx
  4010cd:	be 00 00 00 00       	mov    $0x0,%esi
  4010d2:	48 89 c7             	mov    %rax,%rdi
  4010d5:	e8 26 fc ff ff       	callq  400d00 <fseek@plt>
  4010da:	48 8b 45 d8          	mov    -0x28(%rbp),%rax
  4010de:	48 89 c7             	mov    %rax,%rdi
  4010e1:	e8 ea fb ff ff       	callq  400cd0 <ftell@plt>
  4010e6:	89 45 e4             	mov    %eax,-0x1c(%rbp)
  4010e9:	8b 45 e4             	mov    -0x1c(%rbp),%eax
  4010ec:	48 89 c7             	mov    %rax,%rdi
  4010ef:	e8 3c fc ff ff       	callq  400d30 <malloc@plt>
  4010f4:	48 89 45 e8          	mov    %rax,-0x18(%rbp)
  4010f8:	48 8b 45 d8          	mov    -0x28(%rbp),%rax
  4010fc:	ba 00 00 00 00       	mov    $0x0,%edx
  401101:	be 00 00 00 00       	mov    $0x0,%esi
  401106:	48 89 c7             	mov    %rax,%rdi
  401109:	e8 f2 fb ff ff       	callq  400d00 <fseek@plt>
  40110e:	8b 5d e4             	mov    -0x1c(%rbp),%ebx
  401111:	48 8b 55 d8          	mov    -0x28(%rbp),%rdx
  401115:	48 8b 45 e8          	mov    -0x18(%rbp),%rax
  401119:	48 89 d1             	mov    %rdx,%rcx
  40111c:	ba 01 00 00 00       	mov    $0x1,%edx
  401121:	48 89 de             	mov    %rbx,%rsi
  401124:	48 89 c7             	mov    %rax,%rdi
  401127:	e8 d4 fc ff ff       	callq  400e00 <fread@plt>
  40112c:	8b 55 e4             	mov    -0x1c(%rbp),%edx
  40112f:	48 8b 45 c8          	mov    -0x38(%rbp),%rax
  401133:	48 8b 08             	mov    (%rax),%rcx
  401136:	8b 45 bc             	mov    -0x44(%rbp),%eax
  401139:	48 01 c1             	add    %rax,%rcx
  40113c:	48 8b 45 e8          	mov    -0x18(%rbp),%rax
  401140:	48 89 c6             	mov    %rax,%rsi
  401143:	48 89 cf             	mov    %rcx,%rdi
  401146:	e8 a5 fc ff ff       	callq  400df0 <memcpy@plt>
  40114b:	48 83 c4 48          	add    $0x48,%rsp
  40114f:	5b                   	pop    %rbx
  401150:	c9                   	leaveq 
  401151:	c3                   	retq   

0000000000401152 <main>:
  401152:	55                   	push   %rbp
  401153:	48 89 e5             	mov    %rsp,%rbp
  401156:	48 81 ec b0 00 00 00 	sub    $0xb0,%rsp
  40115d:	89 bd 5c ff ff ff    	mov    %edi,-0xa4(%rbp)
  401163:	48 89 b5 50 ff ff ff 	mov    %rsi,-0xb0(%rbp)
  40116a:	c7 45 ac 00 7c 00 00 	movl   $0x7c00,-0x54(%rbp)
  401171:	48 c7 45 b0 00 00 00 	movq   $0x0,-0x50(%rbp)
  401178:	00 
  401179:	c7 45 f4 01 00 00 00 	movl   $0x1,-0xc(%rbp)
  401180:	e9 0d 01 00 00       	jmpq   401292 <main+0x140>
  401185:	8b 45 f4             	mov    -0xc(%rbp),%eax
  401188:	48 98                	cltq   
  40118a:	48 c1 e0 03          	shl    $0x3,%rax
  40118e:	48 03 85 50 ff ff ff 	add    -0xb0(%rbp),%rax
  401195:	48 8b 00             	mov    (%rax),%rax
  401198:	48 89 45 f8          	mov    %rax,-0x8(%rbp)
  40119c:	48 8b 45 f8          	mov    -0x8(%rbp),%rax
  4011a0:	be 0e 30 40 00       	mov    $0x40300e,%esi
  4011a5:	48 89 c7             	mov    %rax,%rdi
  4011a8:	e8 83 fc ff ff       	callq  400e30 <strcmp@plt>
  4011ad:	85 c0                	test   %eax,%eax
  4011af:	75 2e                	jne    4011df <main+0x8d>
  4011b1:	8b 45 f4             	mov    -0xc(%rbp),%eax
  4011b4:	83 c0 01             	add    $0x1,%eax
  4011b7:	3b 85 5c ff ff ff    	cmp    -0xa4(%rbp),%eax
  4011bd:	7d 20                	jge    4011df <main+0x8d>
  4011bf:	83 45 f4 01          	addl   $0x1,-0xc(%rbp)
  4011c3:	8b 45 f4             	mov    -0xc(%rbp),%eax
  4011c6:	48 98                	cltq   
  4011c8:	48 c1 e0 03          	shl    $0x3,%rax
  4011cc:	48 03 85 50 ff ff ff 	add    -0xb0(%rbp),%rax
  4011d3:	48 8b 00             	mov    (%rax),%rax
  4011d6:	48 89 45 b0          	mov    %rax,-0x50(%rbp)
  4011da:	e9 af 00 00 00       	jmpq   40128e <main+0x13c>
  4011df:	48 8b 45 f8          	mov    -0x8(%rbp),%rax
  4011e3:	be 11 30 40 00       	mov    $0x403011,%esi
  4011e8:	48 89 c7             	mov    %rax,%rdi
  4011eb:	e8 40 fc ff ff       	callq  400e30 <strcmp@plt>
  4011f0:	85 c0                	test   %eax,%eax
  4011f2:	75 32                	jne    401226 <main+0xd4>
  4011f4:	8b 45 f4             	mov    -0xc(%rbp),%eax
  4011f7:	83 c0 01             	add    $0x1,%eax
  4011fa:	3b 85 5c ff ff ff    	cmp    -0xa4(%rbp),%eax
  401200:	7d 24                	jge    401226 <main+0xd4>
  401202:	83 45 f4 01          	addl   $0x1,-0xc(%rbp)
  401206:	8b 45 f4             	mov    -0xc(%rbp),%eax
  401209:	48 98                	cltq   
  40120b:	48 c1 e0 03          	shl    $0x3,%rax
  40120f:	48 03 85 50 ff ff ff 	add    -0xb0(%rbp),%rax
  401216:	48 8b 00             	mov    (%rax),%rax
  401219:	48 89 c7             	mov    %rax,%rdi
  40121c:	e8 93 fd ff ff       	callq  400fb4 <htoi>
  401221:	89 45 ac             	mov    %eax,-0x54(%rbp)
  401224:	eb 68                	jmp    40128e <main+0x13c>
  401226:	48 8b 45 f8          	mov    -0x8(%rbp),%rax
  40122a:	be 1a 30 40 00       	mov    $0x40301a,%esi
  40122f:	48 89 c7             	mov    %rax,%rdi
  401232:	e8 f9 fb ff ff       	callq  400e30 <strcmp@plt>
  401237:	85 c0                	test   %eax,%eax
  401239:	75 35                	jne    401270 <main+0x11e>
  40123b:	8b 45 f4             	mov    -0xc(%rbp),%eax
  40123e:	83 c0 01             	add    $0x1,%eax
  401241:	3b 85 5c ff ff ff    	cmp    -0xa4(%rbp),%eax
  401247:	7d 27                	jge    401270 <main+0x11e>
  401249:	83 45 f4 01          	addl   $0x1,-0xc(%rbp)
  40124d:	8b 45 f4             	mov    -0xc(%rbp),%eax
  401250:	48 98                	cltq   
  401252:	48 c1 e0 03          	shl    $0x3,%rax
  401256:	48 03 85 50 ff ff ff 	add    -0xb0(%rbp),%rax
  40125d:	48 8b 00             	mov    (%rax),%rax
  401260:	48 89 c7             	mov    %rax,%rdi
  401263:	e8 78 fb ff ff       	callq  400de0 <atoi@plt>
  401268:	89 05 b6 30 20 00    	mov    %eax,0x2030b6(%rip)        # 604324 <gsleep>
  40126e:	eb 1e                	jmp    40128e <main+0x13c>
  401270:	bf 28 30 40 00       	mov    $0x403028,%edi
  401275:	e8 76 fa ff ff       	callq  400cf0 <puts@plt>
  40127a:	bf 50 30 40 00       	mov    $0x403050,%edi
  40127f:	e8 6c fa ff ff       	callq  400cf0 <puts@plt>
  401284:	bf 00 00 00 00       	mov    $0x0,%edi
  401289:	e8 82 fa ff ff       	callq  400d10 <exit@plt>
  40128e:	83 45 f4 01          	addl   $0x1,-0xc(%rbp)
  401292:	8b 45 f4             	mov    -0xc(%rbp),%eax
  401295:	3b 85 5c ff ff ff    	cmp    -0xa4(%rbp),%eax
  40129b:	0f 8c e4 fe ff ff    	jl     401185 <main+0x33>
  4012a1:	bf 00 00 00 00       	mov    $0x0,%edi
  4012a6:	e8 15 fc ff ff       	callq  400ec0 <time@plt>
  4012ab:	89 c7                	mov    %eax,%edi
  4012ad:	e8 8e fb ff ff       	callq  400e40 <srand@plt>
  4012b2:	bf 40 00 00 00       	mov    $0x40,%edi
  4012b7:	e8 bb 00 00 00       	callq  401377 <init_memory>
  4012bc:	48 89 45 d0          	mov    %rax,-0x30(%rbp)
  4012c0:	bf 40 00 00 00       	mov    $0x40,%edi
  4012c5:	e8 ad 00 00 00       	callq  401377 <init_memory>
  4012ca:	48 89 45 d8          	mov    %rax,-0x28(%rbp)
  4012ce:	8b 45 ac             	mov    -0x54(%rbp),%eax
  4012d1:	48 8b 55 d0          	mov    -0x30(%rbp),%rdx
  4012d5:	89 c6                	mov    %eax,%esi
  4012d7:	bf cd ab 34 12       	mov    $0x1234abcd,%edi
  4012dc:	e8 16 12 00 00       	callq  4024f7 <init_cpu>
  4012e1:	48 89 45 e0          	mov    %rax,-0x20(%rbp)
  4012e5:	8b 45 ac             	mov    -0x54(%rbp),%eax
  4012e8:	48 8b 55 d8          	mov    -0x28(%rbp),%rdx
  4012ec:	89 c6                	mov    %eax,%esi
  4012ee:	bf 11 11 11 11       	mov    $0x11111111,%edi
  4012f3:	e8 ff 11 00 00       	callq  4024f7 <init_cpu>
  4012f8:	48 89 45 e8          	mov    %rax,-0x18(%rbp)
  4012fc:	48 8b 45 e0          	mov    -0x20(%rbp),%rax
  401300:	48 89 45 90          	mov    %rax,-0x70(%rbp)
  401304:	48 8b 45 e8          	mov    -0x18(%rbp),%rax
  401308:	48 89 45 98          	mov    %rax,-0x68(%rbp)
  40130c:	48 8d 55 90          	lea    -0x70(%rbp),%rdx
  401310:	48 8d 45 a0          	lea    -0x60(%rbp),%rax
  401314:	48 89 d1             	mov    %rdx,%rcx
  401317:	ba 1e 23 40 00       	mov    $0x40231e,%edx
  40131c:	be 00 00 00 00       	mov    $0x0,%esi
  401321:	48 89 c7             	mov    %rax,%rdi
  401324:	e8 57 fa ff ff       	callq  400d80 <pthread_create@plt>
  401329:	48 8d 85 60 ff ff ff 	lea    -0xa0(%rbp),%rax
  401330:	be 00 00 00 00       	mov    $0x0,%esi
  401335:	48 89 c7             	mov    %rax,%rdi
  401338:	e8 23 fa ff ff       	callq  400d60 <pthread_mutex_init@plt>
  40133d:	bf 00 00 00 00       	mov    $0x0,%edi
  401342:	e8 89 fa ff ff       	callq  400dd0 <pthread_exit@plt>
  401347:	90                   	nop

0000000000401348 <exit_if_ptr_is_null>:
  401348:	55                   	push   %rbp
  401349:	48 89 e5             	mov    %rsp,%rbp
  40134c:	48 83 ec 10          	sub    $0x10,%rsp
  401350:	48 89 7d f8          	mov    %rdi,-0x8(%rbp)
  401354:	48 89 75 f0          	mov    %rsi,-0x10(%rbp)
  401358:	48 83 7d f8 00       	cmpq   $0x0,-0x8(%rbp)
  40135d:	75 16                	jne    401375 <exit_if_ptr_is_null+0x2d>
  40135f:	48 8b 45 f0          	mov    -0x10(%rbp),%rax
  401363:	48 89 c7             	mov    %rax,%rdi
  401366:	e8 85 f9 ff ff       	callq  400cf0 <puts@plt>
  40136b:	bf ff ff ff ff       	mov    $0xffffffff,%edi
  401370:	e8 9b f9 ff ff       	callq  400d10 <exit@plt>
  401375:	c9                   	leaveq 
  401376:	c3                   	retq   

0000000000401377 <init_memory>:
  401377:	55                   	push   %rbp
  401378:	48 89 e5             	mov    %rsp,%rbp
  40137b:	48 83 ec 20          	sub    $0x20,%rsp
  40137f:	89 7d ec             	mov    %edi,-0x14(%rbp)
  401382:	bf 10 00 00 00       	mov    $0x10,%edi
  401387:	e8 a4 f9 ff ff       	callq  400d30 <malloc@plt>
  40138c:	48 89 45 f8          	mov    %rax,-0x8(%rbp)
  401390:	48 8b 45 f8          	mov    -0x8(%rbp),%rax
  401394:	be 78 30 40 00       	mov    $0x403078,%esi
  401399:	48 89 c7             	mov    %rax,%rdi
  40139c:	e8 a7 ff ff ff       	callq  401348 <exit_if_ptr_is_null>
  4013a1:	8b 45 ec             	mov    -0x14(%rbp),%eax
  4013a4:	89 c2                	mov    %eax,%edx
  4013a6:	c1 e2 14             	shl    $0x14,%edx
  4013a9:	48 8b 45 f8          	mov    -0x8(%rbp),%rax
  4013ad:	89 50 08             	mov    %edx,0x8(%rax)
  4013b0:	48 8b 45 f8          	mov    -0x8(%rbp),%rax
  4013b4:	8b 40 08             	mov    0x8(%rax),%eax
  4013b7:	89 c0                	mov    %eax,%eax
  4013b9:	be 01 00 00 00       	mov    $0x1,%esi
  4013be:	48 89 c7             	mov    %rax,%rdi
  4013c1:	e8 9a fa ff ff       	callq  400e60 <calloc@plt>
  4013c6:	48 89 c2             	mov    %rax,%rdx
  4013c9:	48 8b 45 f8          	mov    -0x8(%rbp),%rax
  4013cd:	48 89 10             	mov    %rdx,(%rax)
  4013d0:	48 8b 45 f8          	mov    -0x8(%rbp),%rax
  4013d4:	48 8b 00             	mov    (%rax),%rax
  4013d7:	be 98 30 40 00       	mov    $0x403098,%esi
  4013dc:	48 89 c7             	mov    %rax,%rdi
  4013df:	e8 64 ff ff ff       	callq  401348 <exit_if_ptr_is_null>
  4013e4:	48 8b 45 f8          	mov    -0x8(%rbp),%rax
  4013e8:	c9                   	leaveq 
  4013e9:	c3                   	retq   

00000000004013ea <read_memory_8>:
  4013ea:	55                   	push   %rbp
  4013eb:	48 89 e5             	mov    %rsp,%rbp
  4013ee:	48 89 7d f8          	mov    %rdi,-0x8(%rbp)
  4013f2:	89 75 f4             	mov    %esi,-0xc(%rbp)
  4013f5:	48 8b 45 f8          	mov    -0x8(%rbp),%rax
  4013f9:	8b 40 08             	mov    0x8(%rax),%eax
  4013fc:	3b 45 f4             	cmp    -0xc(%rbp),%eax
  4013ff:	73 07                	jae    401408 <read_memory_8+0x1e>
  401401:	b8 ff ff ff ff       	mov    $0xffffffff,%eax
  401406:	eb 11                	jmp    401419 <read_memory_8+0x2f>
  401408:	48 8b 45 f8          	mov    -0x8(%rbp),%rax
  40140c:	48 8b 10             	mov    (%rax),%rdx
  40140f:	8b 45 f4             	mov    -0xc(%rbp),%eax
  401412:	48 8d 04 02          	lea    (%rdx,%rax,1),%rax
  401416:	0f b6 00             	movzbl (%rax),%eax
  401419:	c9                   	leaveq 
  40141a:	c3                   	retq   

000000000040141b <write_memory_8>:
  40141b:	55                   	push   %rbp
  40141c:	48 89 e5             	mov    %rsp,%rbp
  40141f:	48 89 7d f8          	mov    %rdi,-0x8(%rbp)
  401423:	89 75 f4             	mov    %esi,-0xc(%rbp)
  401426:	89 d0                	mov    %edx,%eax
  401428:	88 45 f0             	mov    %al,-0x10(%rbp)
  40142b:	48 8b 45 f8          	mov    -0x8(%rbp),%rax
  40142f:	8b 40 08             	mov    0x8(%rax),%eax
  401432:	3b 45 f4             	cmp    -0xc(%rbp),%eax
  401435:	72 15                	jb     40144c <write_memory_8+0x31>
  401437:	48 8b 45 f8          	mov    -0x8(%rbp),%rax
  40143b:	48 8b 10             	mov    (%rax),%rdx
  40143e:	8b 45 f4             	mov    -0xc(%rbp),%eax
  401441:	48 01 c2             	add    %rax,%rdx
  401444:	0f b6 45 f0          	movzbl -0x10(%rbp),%eax
  401448:	88 02                	mov    %al,(%rdx)
  40144a:	eb 01                	jmp    40144d <write_memory_8+0x32>
  40144c:	90                   	nop
  40144d:	c9                   	leaveq 
  40144e:	c3                   	retq   

000000000040144f <read_memory_16>:
  40144f:	55                   	push   %rbp
  401450:	48 89 e5             	mov    %rsp,%rbp
  401453:	48 89 7d f8          	mov    %rdi,-0x8(%rbp)
  401457:	89 75 f4             	mov    %esi,-0xc(%rbp)
  40145a:	48 8b 45 f8          	mov    -0x8(%rbp),%rax
  40145e:	8b 40 08             	mov    0x8(%rax),%eax
  401461:	3b 45 f4             	cmp    -0xc(%rbp),%eax
  401464:	73 07                	jae    40146d <read_memory_16+0x1e>
  401466:	b8 ff ff ff ff       	mov    $0xffffffff,%eax
  40146b:	eb 14                	jmp    401481 <read_memory_16+0x32>
  40146d:	48 8b 45 f8          	mov    -0x8(%rbp),%rax
  401471:	48 8b 00             	mov    (%rax),%rax
  401474:	48 89 c2             	mov    %rax,%rdx
  401477:	8b 45 f4             	mov    -0xc(%rbp),%eax
  40147a:	48 8d 04 02          	lea    (%rdx,%rax,1),%rax
  40147e:	0f b7 00             	movzwl (%rax),%eax
  401481:	c9                   	leaveq 
  401482:	c3                   	retq   

0000000000401483 <write_memory_16>:
  401483:	55                   	push   %rbp
  401484:	48 89 e5             	mov    %rsp,%rbp
  401487:	48 89 7d f8          	mov    %rdi,-0x8(%rbp)
  40148b:	89 75 f4             	mov    %esi,-0xc(%rbp)
  40148e:	89 d0                	mov    %edx,%eax
  401490:	66 89 45 f0          	mov    %ax,-0x10(%rbp)
  401494:	48 8b 45 f8          	mov    -0x8(%rbp),%rax
  401498:	8b 40 08             	mov    0x8(%rax),%eax
  40149b:	3b 45 f4             	cmp    -0xc(%rbp),%eax
  40149e:	72 19                	jb     4014b9 <write_memory_16+0x36>
  4014a0:	48 8b 45 f8          	mov    -0x8(%rbp),%rax
  4014a4:	48 8b 00             	mov    (%rax),%rax
  4014a7:	48 89 c2             	mov    %rax,%rdx
  4014aa:	8b 45 f4             	mov    -0xc(%rbp),%eax
  4014ad:	48 01 c2             	add    %rax,%rdx
  4014b0:	0f b7 45 f0          	movzwl -0x10(%rbp),%eax
  4014b4:	66 89 02             	mov    %ax,(%rdx)
  4014b7:	eb 01                	jmp    4014ba <write_memory_16+0x37>
  4014b9:	90                   	nop
  4014ba:	c9                   	leaveq 
  4014bb:	c3                   	retq   

00000000004014bc <read_memory_32>:
  4014bc:	55                   	push   %rbp
  4014bd:	48 89 e5             	mov    %rsp,%rbp
  4014c0:	48 89 7d f8          	mov    %rdi,-0x8(%rbp)
  4014c4:	89 75 f4             	mov    %esi,-0xc(%rbp)
  4014c7:	48 8b 45 f8          	mov    -0x8(%rbp),%rax
  4014cb:	8b 40 08             	mov    0x8(%rax),%eax
  4014ce:	3b 45 f4             	cmp    -0xc(%rbp),%eax
  4014d1:	73 07                	jae    4014da <read_memory_32+0x1e>
  4014d3:	b8 ff ff ff ff       	mov    $0xffffffff,%eax
  4014d8:	eb 13                	jmp    4014ed <read_memory_32+0x31>
  4014da:	48 8b 45 f8          	mov    -0x8(%rbp),%rax
  4014de:	48 8b 00             	mov    (%rax),%rax
  4014e1:	48 89 c2             	mov    %rax,%rdx
  4014e4:	8b 45 f4             	mov    -0xc(%rbp),%eax
  4014e7:	48 8d 04 02          	lea    (%rdx,%rax,1),%rax
  4014eb:	8b 00                	mov    (%rax),%eax
  4014ed:	c9                   	leaveq 
  4014ee:	c3                   	retq   

00000000004014ef <write_memory_32>:
  4014ef:	55                   	push   %rbp
  4014f0:	48 89 e5             	mov    %rsp,%rbp
  4014f3:	48 89 7d f8          	mov    %rdi,-0x8(%rbp)
  4014f7:	89 75 f4             	mov    %esi,-0xc(%rbp)
  4014fa:	89 55 f0             	mov    %edx,-0x10(%rbp)
  4014fd:	48 8b 45 f8          	mov    -0x8(%rbp),%rax
  401501:	8b 40 08             	mov    0x8(%rax),%eax
  401504:	3b 45 f4             	cmp    -0xc(%rbp),%eax
  401507:	72 17                	jb     401520 <write_memory_32+0x31>
  401509:	48 8b 45 f8          	mov    -0x8(%rbp),%rax
  40150d:	48 8b 00             	mov    (%rax),%rax
  401510:	48 89 c2             	mov    %rax,%rdx
  401513:	8b 45 f4             	mov    -0xc(%rbp),%eax
  401516:	48 01 c2             	add    %rax,%rdx
  401519:	8b 45 f0             	mov    -0x10(%rbp),%eax
  40151c:	89 02                	mov    %eax,(%rdx)
  40151e:	eb 01                	jmp    401521 <write_memory_32+0x32>
  401520:	90                   	nop
  401521:	c9                   	leaveq 
  401522:	c3                   	retq   
  401523:	90                   	nop

0000000000401524 <signedimm>:
  401524:	55                   	push   %rbp
  401525:	48 89 e5             	mov    %rsp,%rbp
  401528:	89 7d ec             	mov    %edi,-0x14(%rbp)
  40152b:	8b 45 ec             	mov    -0x14(%rbp),%eax
  40152e:	66 89 45 fe          	mov    %ax,-0x2(%rbp)
  401532:	0f b7 45 fe          	movzwl -0x2(%rbp),%eax
  401536:	66 85 c0             	test   %ax,%ax
  401539:	79 0b                	jns    401546 <signedimm+0x22>
  40153b:	0f b7 45 fe          	movzwl -0x2(%rbp),%eax
  40153f:	0d 00 00 ff ff       	or     $0xffff0000,%eax
  401544:	eb 04                	jmp    40154a <signedimm+0x26>
  401546:	0f b7 45 fe          	movzwl -0x2(%rbp),%eax
  40154a:	c9                   	leaveq 
  40154b:	c3                   	retq   

000000000040154c <signedjmpimm>:
  40154c:	55                   	push   %rbp
  40154d:	48 89 e5             	mov    %rsp,%rbp
  401550:	89 7d ec             	mov    %edi,-0x14(%rbp)
  401553:	8b 45 ec             	mov    -0x14(%rbp),%eax
  401556:	66 89 45 fe          	mov    %ax,-0x2(%rbp)
  40155a:	0f b7 45 fe          	movzwl -0x2(%rbp),%eax
  40155e:	25 00 00 00 02       	and    $0x2000000,%eax
  401563:	85 c0                	test   %eax,%eax
  401565:	74 0b                	je     401572 <signedjmpimm+0x26>
  401567:	0f b7 45 fe          	movzwl -0x2(%rbp),%eax
  40156b:	0d 00 00 00 ff       	or     $0xff000000,%eax
  401570:	eb 04                	jmp    401576 <signedjmpimm+0x2a>
  401572:	0f b7 45 fe          	movzwl -0x2(%rbp),%eax
  401576:	c9                   	leaveq 
  401577:	c3                   	retq   

0000000000401578 <zeroeximm>:
  401578:	55                   	push   %rbp
  401579:	48 89 e5             	mov    %rsp,%rbp
  40157c:	89 7d fc             	mov    %edi,-0x4(%rbp)
  40157f:	8b 45 fc             	mov    -0x4(%rbp),%eax
  401582:	25 ff ff 00 00       	and    $0xffff,%eax
  401587:	c9                   	leaveq 
  401588:	c3                   	retq   

0000000000401589 <getfetch>:
  401589:	55                   	push   %rbp
  40158a:	48 89 e5             	mov    %rsp,%rbp
  40158d:	48 83 ec 20          	sub    $0x20,%rsp
  401591:	48 89 7d e8          	mov    %rdi,-0x18(%rbp)
  401595:	48 8b 45 e8          	mov    -0x18(%rbp),%rax
  401599:	8b 50 08             	mov    0x8(%rax),%edx
  40159c:	48 8b 45 e8          	mov    -0x18(%rbp),%rax
  4015a0:	89 50 04             	mov    %edx,0x4(%rax)
  4015a3:	48 8b 45 e8          	mov    -0x18(%rbp),%rax
  4015a7:	8b 50 04             	mov    0x4(%rax),%edx
  4015aa:	48 8b 45 e8          	mov    -0x18(%rbp),%rax
  4015ae:	48 8b 80 90 00 00 00 	mov    0x90(%rax),%rax
  4015b5:	89 d6                	mov    %edx,%esi
  4015b7:	48 89 c7             	mov    %rax,%rdi
  4015ba:	e8 fd fe ff ff       	callq  4014bc <read_memory_32>
  4015bf:	89 45 fc             	mov    %eax,-0x4(%rbp)
  4015c2:	48 8b 45 e8          	mov    -0x18(%rbp),%rax
  4015c6:	8b 40 08             	mov    0x8(%rax),%eax
  4015c9:	8d 50 04             	lea    0x4(%rax),%edx
  4015cc:	48 8b 45 e8          	mov    -0x18(%rbp),%rax
  4015d0:	89 50 08             	mov    %edx,0x8(%rax)
  4015d3:	8b 45 fc             	mov    -0x4(%rbp),%eax
  4015d6:	c9                   	leaveq 
  4015d7:	c3                   	retq   

00000000004015d8 <exectued>:
  4015d8:	55                   	push   %rbp
  4015d9:	48 89 e5             	mov    %rsp,%rbp
  4015dc:	41 54                	push   %r12
  4015de:	53                   	push   %rbx
  4015df:	48 83 ec 50          	sub    $0x50,%rsp
  4015e3:	48 89 7d b8          	mov    %rdi,-0x48(%rbp)
  4015e7:	89 75 b4             	mov    %esi,-0x4c(%rbp)
  4015ea:	c7 45 c0 00 00 00 00 	movl   $0x0,-0x40(%rbp)
  4015f1:	8b 45 b4             	mov    -0x4c(%rbp),%eax
  4015f4:	c1 e8 1a             	shr    $0x1a,%eax
  4015f7:	83 f8 1f             	cmp    $0x1f,%eax
  4015fa:	0f 87 d0 0b 00 00    	ja     4021d0 <exectued+0xbf8>
  401600:	89 c0                	mov    %eax,%eax
  401602:	48 8b 04 c5 c0 30 40 	mov    0x4030c0(,%rax,8),%rax
  401609:	00 
  40160a:	ff e0                	jmpq   *%rax
  40160c:	8b 45 b4             	mov    -0x4c(%rbp),%eax
  40160f:	c1 e8 15             	shr    $0x15,%eax
  401612:	89 c3                	mov    %eax,%ebx
  401614:	83 e3 1f             	and    $0x1f,%ebx
  401617:	8b 45 b4             	mov    -0x4c(%rbp),%eax
  40161a:	c1 e8 10             	shr    $0x10,%eax
  40161d:	89 c2                	mov    %eax,%edx
  40161f:	83 e2 1f             	and    $0x1f,%edx
  401622:	48 8b 45 b8          	mov    -0x48(%rbp),%rax
  401626:	89 d2                	mov    %edx,%edx
  401628:	48 83 c2 04          	add    $0x4,%rdx
  40162c:	8b 14 90             	mov    (%rax,%rdx,4),%edx
  40162f:	8b 45 b4             	mov    -0x4c(%rbp),%eax
  401632:	c1 e8 0b             	shr    $0xb,%eax
  401635:	89 c1                	mov    %eax,%ecx
  401637:	83 e1 1f             	and    $0x1f,%ecx
  40163a:	48 8b 45 b8          	mov    -0x48(%rbp),%rax
  40163e:	89 c9                	mov    %ecx,%ecx
  401640:	48 83 c1 04          	add    $0x4,%rcx
  401644:	8b 04 88             	mov    (%rax,%rcx,4),%eax
  401647:	8d 0c 02             	lea    (%rdx,%rax,1),%ecx
  40164a:	48 8b 45 b8          	mov    -0x48(%rbp),%rax
  40164e:	89 da                	mov    %ebx,%edx
  401650:	48 83 c2 04          	add    $0x4,%rdx
  401654:	89 0c 90             	mov    %ecx,(%rax,%rdx,4)
  401657:	e9 a5 0b 00 00       	jmpq   402201 <exectued+0xc29>
  40165c:	8b 45 b4             	mov    -0x4c(%rbp),%eax
  40165f:	c1 e8 15             	shr    $0x15,%eax
  401662:	41 89 c4             	mov    %eax,%r12d
  401665:	41 83 e4 1f          	and    $0x1f,%r12d
  401669:	8b 45 b4             	mov    -0x4c(%rbp),%eax
  40166c:	c1 e8 10             	shr    $0x10,%eax
  40166f:	89 c2                	mov    %eax,%edx
  401671:	83 e2 1f             	and    $0x1f,%edx
  401674:	48 8b 45 b8          	mov    -0x48(%rbp),%rax
  401678:	89 d2                	mov    %edx,%edx
  40167a:	48 83 c2 04          	add    $0x4,%rdx
  40167e:	8b 1c 90             	mov    (%rax,%rdx,4),%ebx
  401681:	8b 45 b4             	mov    -0x4c(%rbp),%eax
  401684:	89 c7                	mov    %eax,%edi
  401686:	e8 99 fe ff ff       	callq  401524 <signedimm>
  40168b:	8d 0c 03             	lea    (%rbx,%rax,1),%ecx
  40168e:	48 8b 45 b8          	mov    -0x48(%rbp),%rax
  401692:	44 89 e2             	mov    %r12d,%edx
  401695:	48 83 c2 04          	add    $0x4,%rdx
  401699:	89 0c 90             	mov    %ecx,(%rax,%rdx,4)
  40169c:	e9 60 0b 00 00       	jmpq   402201 <exectued+0xc29>
  4016a1:	8b 45 b4             	mov    -0x4c(%rbp),%eax
  4016a4:	c1 e8 15             	shr    $0x15,%eax
  4016a7:	89 c3                	mov    %eax,%ebx
  4016a9:	83 e3 1f             	and    $0x1f,%ebx
  4016ac:	8b 45 b4             	mov    -0x4c(%rbp),%eax
  4016af:	c1 e8 10             	shr    $0x10,%eax
  4016b2:	89 c2                	mov    %eax,%edx
  4016b4:	83 e2 1f             	and    $0x1f,%edx
  4016b7:	48 8b 45 b8          	mov    -0x48(%rbp),%rax
  4016bb:	89 d2                	mov    %edx,%edx
  4016bd:	48 83 c2 04          	add    $0x4,%rdx
  4016c1:	8b 14 90             	mov    (%rax,%rdx,4),%edx
  4016c4:	8b 45 b4             	mov    -0x4c(%rbp),%eax
  4016c7:	c1 e8 0b             	shr    $0xb,%eax
  4016ca:	89 c1                	mov    %eax,%ecx
  4016cc:	83 e1 1f             	and    $0x1f,%ecx
  4016cf:	48 8b 45 b8          	mov    -0x48(%rbp),%rax
  4016d3:	89 c9                	mov    %ecx,%ecx
  4016d5:	48 83 c1 04          	add    $0x4,%rcx
  4016d9:	8b 04 88             	mov    (%rax,%rcx,4),%eax
  4016dc:	89 d1                	mov    %edx,%ecx
  4016de:	29 c1                	sub    %eax,%ecx
  4016e0:	48 8b 45 b8          	mov    -0x48(%rbp),%rax
  4016e4:	89 da                	mov    %ebx,%edx
  4016e6:	48 83 c2 04          	add    $0x4,%rdx
  4016ea:	89 0c 90             	mov    %ecx,(%rax,%rdx,4)
  4016ed:	e9 0f 0b 00 00       	jmpq   402201 <exectued+0xc29>
  4016f2:	8b 45 b4             	mov    -0x4c(%rbp),%eax
  4016f5:	c1 e8 15             	shr    $0x15,%eax
  4016f8:	89 c3                	mov    %eax,%ebx
  4016fa:	83 e3 1f             	and    $0x1f,%ebx
  4016fd:	8b 45 b4             	mov    -0x4c(%rbp),%eax
  401700:	c1 e8 10             	shr    $0x10,%eax
  401703:	89 c2                	mov    %eax,%edx
  401705:	83 e2 1f             	and    $0x1f,%edx
  401708:	48 8b 45 b8          	mov    -0x48(%rbp),%rax
  40170c:	89 d2                	mov    %edx,%edx
  40170e:	48 83 c2 04          	add    $0x4,%rdx
  401712:	8b 14 90             	mov    (%rax,%rdx,4),%edx
  401715:	8b 45 b4             	mov    -0x4c(%rbp),%eax
  401718:	c1 e8 0b             	shr    $0xb,%eax
  40171b:	89 c1                	mov    %eax,%ecx
  40171d:	83 e1 1f             	and    $0x1f,%ecx
  401720:	48 8b 45 b8          	mov    -0x48(%rbp),%rax
  401724:	89 c9                	mov    %ecx,%ecx
  401726:	48 83 c1 04          	add    $0x4,%rcx
  40172a:	8b 04 88             	mov    (%rax,%rcx,4),%eax
  40172d:	0f af d0             	imul   %eax,%edx
  401730:	48 8b 45 b8          	mov    -0x48(%rbp),%rax
  401734:	89 d9                	mov    %ebx,%ecx
  401736:	48 83 c1 04          	add    $0x4,%rcx
  40173a:	89 14 88             	mov    %edx,(%rax,%rcx,4)
  40173d:	e9 bf 0a 00 00       	jmpq   402201 <exectued+0xc29>
  401742:	8b 45 b4             	mov    -0x4c(%rbp),%eax
  401745:	c1 e8 0b             	shr    $0xb,%eax
  401748:	89 c2                	mov    %eax,%edx
  40174a:	83 e2 1f             	and    $0x1f,%edx
  40174d:	48 8b 45 b8          	mov    -0x48(%rbp),%rax
  401751:	89 d2                	mov    %edx,%edx
  401753:	48 83 c2 04          	add    $0x4,%rdx
  401757:	8b 04 90             	mov    (%rax,%rdx,4),%eax
  40175a:	85 c0                	test   %eax,%eax
  40175c:	75 18                	jne    401776 <exectued+0x19e>
  40175e:	48 8b 45 b8          	mov    -0x48(%rbp),%rax
  401762:	8b 40 0c             	mov    0xc(%rax),%eax
  401765:	89 c2                	mov    %eax,%edx
  401767:	83 e2 01             	and    $0x1,%edx
  40176a:	48 8b 45 b8          	mov    -0x48(%rbp),%rax
  40176e:	89 50 0c             	mov    %edx,0xc(%rax)
  401771:	e9 8b 0a 00 00       	jmpq   402201 <exectued+0xc29>
  401776:	8b 45 b4             	mov    -0x4c(%rbp),%eax
  401779:	c1 e8 15             	shr    $0x15,%eax
  40177c:	89 c3                	mov    %eax,%ebx
  40177e:	83 e3 1f             	and    $0x1f,%ebx
  401781:	8b 45 b4             	mov    -0x4c(%rbp),%eax
  401784:	c1 e8 10             	shr    $0x10,%eax
  401787:	89 c2                	mov    %eax,%edx
  401789:	83 e2 1f             	and    $0x1f,%edx
  40178c:	48 8b 45 b8          	mov    -0x48(%rbp),%rax
  401790:	89 d2                	mov    %edx,%edx
  401792:	48 83 c2 04          	add    $0x4,%rdx
  401796:	8b 04 90             	mov    (%rax,%rdx,4),%eax
  401799:	8b 55 b4             	mov    -0x4c(%rbp),%edx
  40179c:	c1 ea 0b             	shr    $0xb,%edx
  40179f:	89 d1                	mov    %edx,%ecx
  4017a1:	83 e1 1f             	and    $0x1f,%ecx
  4017a4:	48 8b 55 b8          	mov    -0x48(%rbp),%rdx
  4017a8:	89 c9                	mov    %ecx,%ecx
  4017aa:	48 83 c1 04          	add    $0x4,%rcx
  4017ae:	8b 0c 8a             	mov    (%rdx,%rcx,4),%ecx
  4017b1:	89 4d a8             	mov    %ecx,-0x58(%rbp)
  4017b4:	ba 00 00 00 00       	mov    $0x0,%edx
  4017b9:	f7 75 a8             	divl   -0x58(%rbp)
  4017bc:	89 c2                	mov    %eax,%edx
  4017be:	48 8b 45 b8          	mov    -0x48(%rbp),%rax
  4017c2:	89 d9                	mov    %ebx,%ecx
  4017c4:	48 83 c1 04          	add    $0x4,%rcx
  4017c8:	89 14 88             	mov    %edx,(%rax,%rcx,4)
  4017cb:	e9 31 0a 00 00       	jmpq   402201 <exectued+0xc29>
  4017d0:	8b 45 b4             	mov    -0x4c(%rbp),%eax
  4017d3:	c1 e8 0b             	shr    $0xb,%eax
  4017d6:	89 c2                	mov    %eax,%edx
  4017d8:	83 e2 1f             	and    $0x1f,%edx
  4017db:	48 8b 45 b8          	mov    -0x48(%rbp),%rax
  4017df:	89 d2                	mov    %edx,%edx
  4017e1:	48 83 c2 04          	add    $0x4,%rdx
  4017e5:	8b 04 90             	mov    (%rax,%rdx,4),%eax
  4017e8:	85 c0                	test   %eax,%eax
  4017ea:	75 18                	jne    401804 <exectued+0x22c>
  4017ec:	48 8b 45 b8          	mov    -0x48(%rbp),%rax
  4017f0:	8b 40 0c             	mov    0xc(%rax),%eax
  4017f3:	89 c2                	mov    %eax,%edx
  4017f5:	83 e2 02             	and    $0x2,%edx
  4017f8:	48 8b 45 b8          	mov    -0x48(%rbp),%rax
  4017fc:	89 50 0c             	mov    %edx,0xc(%rax)
  4017ff:	e9 fd 09 00 00       	jmpq   402201 <exectued+0xc29>
  401804:	8b 45 b4             	mov    -0x4c(%rbp),%eax
  401807:	c1 e8 15             	shr    $0x15,%eax
  40180a:	89 c3                	mov    %eax,%ebx
  40180c:	83 e3 1f             	and    $0x1f,%ebx
  40180f:	8b 45 b4             	mov    -0x4c(%rbp),%eax
  401812:	c1 e8 10             	shr    $0x10,%eax
  401815:	89 c2                	mov    %eax,%edx
  401817:	83 e2 1f             	and    $0x1f,%edx
  40181a:	48 8b 45 b8          	mov    -0x48(%rbp),%rax
  40181e:	89 d2                	mov    %edx,%edx
  401820:	48 83 c2 04          	add    $0x4,%rdx
  401824:	8b 04 90             	mov    (%rax,%rdx,4),%eax
  401827:	8b 55 b4             	mov    -0x4c(%rbp),%edx
  40182a:	c1 ea 0b             	shr    $0xb,%edx
  40182d:	89 d1                	mov    %edx,%ecx
  40182f:	83 e1 1f             	and    $0x1f,%ecx
  401832:	48 8b 55 b8          	mov    -0x48(%rbp),%rdx
  401836:	89 c9                	mov    %ecx,%ecx
  401838:	48 83 c1 04          	add    $0x4,%rcx
  40183c:	8b 0c 8a             	mov    (%rdx,%rcx,4),%ecx
  40183f:	ba 00 00 00 00       	mov    $0x0,%edx
  401844:	f7 f1                	div    %ecx
  401846:	48 8b 45 b8          	mov    -0x48(%rbp),%rax
  40184a:	89 d9                	mov    %ebx,%ecx
  40184c:	48 83 c1 04          	add    $0x4,%rcx
  401850:	89 14 88             	mov    %edx,(%rax,%rcx,4)
  401853:	e9 a9 09 00 00       	jmpq   402201 <exectued+0xc29>
  401858:	8b 45 b4             	mov    -0x4c(%rbp),%eax
  40185b:	c1 e8 15             	shr    $0x15,%eax
  40185e:	89 c3                	mov    %eax,%ebx
  401860:	83 e3 1f             	and    $0x1f,%ebx
  401863:	8b 45 b4             	mov    -0x4c(%rbp),%eax
  401866:	c1 e8 10             	shr    $0x10,%eax
  401869:	89 c2                	mov    %eax,%edx
  40186b:	83 e2 1f             	and    $0x1f,%edx
  40186e:	48 8b 45 b8          	mov    -0x48(%rbp),%rax
  401872:	89 d2                	mov    %edx,%edx
  401874:	48 83 c2 04          	add    $0x4,%rdx
  401878:	8b 14 90             	mov    (%rax,%rdx,4),%edx
  40187b:	8b 45 b4             	mov    -0x4c(%rbp),%eax
  40187e:	c1 e8 0b             	shr    $0xb,%eax
  401881:	89 c1                	mov    %eax,%ecx
  401883:	83 e1 1f             	and    $0x1f,%ecx
  401886:	48 8b 45 b8          	mov    -0x48(%rbp),%rax
  40188a:	89 c9                	mov    %ecx,%ecx
  40188c:	48 83 c1 04          	add    $0x4,%rcx
  401890:	8b 04 88             	mov    (%rax,%rcx,4),%eax
  401893:	89 d1                	mov    %edx,%ecx
  401895:	21 c1                	and    %eax,%ecx
  401897:	48 8b 45 b8          	mov    -0x48(%rbp),%rax
  40189b:	89 da                	mov    %ebx,%edx
  40189d:	48 83 c2 04          	add    $0x4,%rdx
  4018a1:	89 0c 90             	mov    %ecx,(%rax,%rdx,4)
  4018a4:	e9 58 09 00 00       	jmpq   402201 <exectued+0xc29>
  4018a9:	8b 45 b4             	mov    -0x4c(%rbp),%eax
  4018ac:	c1 e8 15             	shr    $0x15,%eax
  4018af:	89 c3                	mov    %eax,%ebx
  4018b1:	83 e3 1f             	and    $0x1f,%ebx
  4018b4:	8b 45 b4             	mov    -0x4c(%rbp),%eax
  4018b7:	c1 e8 10             	shr    $0x10,%eax
  4018ba:	89 c2                	mov    %eax,%edx
  4018bc:	83 e2 1f             	and    $0x1f,%edx
  4018bf:	48 8b 45 b8          	mov    -0x48(%rbp),%rax
  4018c3:	89 d2                	mov    %edx,%edx
  4018c5:	48 83 c2 04          	add    $0x4,%rdx
  4018c9:	8b 14 90             	mov    (%rax,%rdx,4),%edx
  4018cc:	8b 45 b4             	mov    -0x4c(%rbp),%eax
  4018cf:	c1 e8 0b             	shr    $0xb,%eax
  4018d2:	89 c1                	mov    %eax,%ecx
  4018d4:	83 e1 1f             	and    $0x1f,%ecx
  4018d7:	48 8b 45 b8          	mov    -0x48(%rbp),%rax
  4018db:	89 c9                	mov    %ecx,%ecx
  4018dd:	48 83 c1 04          	add    $0x4,%rcx
  4018e1:	8b 04 88             	mov    (%rax,%rcx,4),%eax
  4018e4:	89 d1                	mov    %edx,%ecx
  4018e6:	09 c1                	or     %eax,%ecx
  4018e8:	48 8b 45 b8          	mov    -0x48(%rbp),%rax
  4018ec:	89 da                	mov    %ebx,%edx
  4018ee:	48 83 c2 04          	add    $0x4,%rdx
  4018f2:	89 0c 90             	mov    %ecx,(%rax,%rdx,4)
  4018f5:	e9 07 09 00 00       	jmpq   402201 <exectued+0xc29>
  4018fa:	8b 45 b4             	mov    -0x4c(%rbp),%eax
  4018fd:	c1 e8 15             	shr    $0x15,%eax
  401900:	89 c3                	mov    %eax,%ebx
  401902:	83 e3 1f             	and    $0x1f,%ebx
  401905:	8b 45 b4             	mov    -0x4c(%rbp),%eax
  401908:	c1 e8 10             	shr    $0x10,%eax
  40190b:	89 c2                	mov    %eax,%edx
  40190d:	83 e2 1f             	and    $0x1f,%edx
  401910:	48 8b 45 b8          	mov    -0x48(%rbp),%rax
  401914:	89 d2                	mov    %edx,%edx
  401916:	48 83 c2 04          	add    $0x4,%rdx
  40191a:	8b 04 90             	mov    (%rax,%rdx,4),%eax
  40191d:	89 c1                	mov    %eax,%ecx
  40191f:	f7 d1                	not    %ecx
  401921:	48 8b 45 b8          	mov    -0x48(%rbp),%rax
  401925:	89 da                	mov    %ebx,%edx
  401927:	48 83 c2 04          	add    $0x4,%rdx
  40192b:	89 0c 90             	mov    %ecx,(%rax,%rdx,4)
  40192e:	e9 ce 08 00 00       	jmpq   402201 <exectued+0xc29>
  401933:	8b 45 b4             	mov    -0x4c(%rbp),%eax
  401936:	c1 e8 15             	shr    $0x15,%eax
  401939:	89 c3                	mov    %eax,%ebx
  40193b:	83 e3 1f             	and    $0x1f,%ebx
  40193e:	8b 45 b4             	mov    -0x4c(%rbp),%eax
  401941:	c1 e8 10             	shr    $0x10,%eax
  401944:	89 c2                	mov    %eax,%edx
  401946:	83 e2 1f             	and    $0x1f,%edx
  401949:	48 8b 45 b8          	mov    -0x48(%rbp),%rax
  40194d:	89 d2                	mov    %edx,%edx
  40194f:	48 83 c2 04          	add    $0x4,%rdx
  401953:	8b 14 90             	mov    (%rax,%rdx,4),%edx
  401956:	8b 45 b4             	mov    -0x4c(%rbp),%eax
  401959:	c1 e8 0b             	shr    $0xb,%eax
  40195c:	89 c1                	mov    %eax,%ecx
  40195e:	83 e1 1f             	and    $0x1f,%ecx
  401961:	48 8b 45 b8          	mov    -0x48(%rbp),%rax
  401965:	89 c9                	mov    %ecx,%ecx
  401967:	48 83 c1 04          	add    $0x4,%rcx
  40196b:	8b 04 88             	mov    (%rax,%rcx,4),%eax
  40196e:	89 d1                	mov    %edx,%ecx
  401970:	31 c1                	xor    %eax,%ecx
  401972:	48 8b 45 b8          	mov    -0x48(%rbp),%rax
  401976:	89 da                	mov    %ebx,%edx
  401978:	48 83 c2 04          	add    $0x4,%rdx
  40197c:	89 0c 90             	mov    %ecx,(%rax,%rdx,4)
  40197f:	e9 7d 08 00 00       	jmpq   402201 <exectued+0xc29>
  401984:	8b 45 b4             	mov    -0x4c(%rbp),%eax
  401987:	c1 e8 15             	shr    $0x15,%eax
  40198a:	41 89 c4             	mov    %eax,%r12d
  40198d:	41 83 e4 1f          	and    $0x1f,%r12d
  401991:	8b 45 b4             	mov    -0x4c(%rbp),%eax
  401994:	c1 e8 10             	shr    $0x10,%eax
  401997:	89 c2                	mov    %eax,%edx
  401999:	83 e2 1f             	and    $0x1f,%edx
  40199c:	48 8b 45 b8          	mov    -0x48(%rbp),%rax
  4019a0:	89 d2                	mov    %edx,%edx
  4019a2:	48 83 c2 04          	add    $0x4,%rdx
  4019a6:	8b 1c 90             	mov    (%rax,%rdx,4),%ebx
  4019a9:	8b 45 b4             	mov    -0x4c(%rbp),%eax
  4019ac:	89 c7                	mov    %eax,%edi
  4019ae:	e8 c5 fb ff ff       	callq  401578 <zeroeximm>
  4019b3:	89 d9                	mov    %ebx,%ecx
  4019b5:	21 c1                	and    %eax,%ecx
  4019b7:	48 8b 45 b8          	mov    -0x48(%rbp),%rax
  4019bb:	44 89 e2             	mov    %r12d,%edx
  4019be:	48 83 c2 04          	add    $0x4,%rdx
  4019c2:	89 0c 90             	mov    %ecx,(%rax,%rdx,4)
  4019c5:	e9 37 08 00 00       	jmpq   402201 <exectued+0xc29>
  4019ca:	8b 45 b4             	mov    -0x4c(%rbp),%eax
  4019cd:	c1 e8 15             	shr    $0x15,%eax
  4019d0:	41 89 c4             	mov    %eax,%r12d
  4019d3:	41 83 e4 1f          	and    $0x1f,%r12d
  4019d7:	8b 45 b4             	mov    -0x4c(%rbp),%eax
  4019da:	c1 e8 10             	shr    $0x10,%eax
  4019dd:	89 c2                	mov    %eax,%edx
  4019df:	83 e2 1f             	and    $0x1f,%edx
  4019e2:	48 8b 45 b8          	mov    -0x48(%rbp),%rax
  4019e6:	89 d2                	mov    %edx,%edx
  4019e8:	48 83 c2 04          	add    $0x4,%rdx
  4019ec:	8b 1c 90             	mov    (%rax,%rdx,4),%ebx
  4019ef:	8b 45 b4             	mov    -0x4c(%rbp),%eax
  4019f2:	89 c7                	mov    %eax,%edi
  4019f4:	e8 7f fb ff ff       	callq  401578 <zeroeximm>
  4019f9:	89 d9                	mov    %ebx,%ecx
  4019fb:	09 c1                	or     %eax,%ecx
  4019fd:	48 8b 45 b8          	mov    -0x48(%rbp),%rax
  401a01:	44 89 e2             	mov    %r12d,%edx
  401a04:	48 83 c2 04          	add    $0x4,%rdx
  401a08:	89 0c 90             	mov    %ecx,(%rax,%rdx,4)
  401a0b:	e9 f1 07 00 00       	jmpq   402201 <exectued+0xc29>
  401a10:	8b 45 b4             	mov    -0x4c(%rbp),%eax
  401a13:	c1 e8 15             	shr    $0x15,%eax
  401a16:	41 89 c4             	mov    %eax,%r12d
  401a19:	41 83 e4 1f          	and    $0x1f,%r12d
  401a1d:	8b 45 b4             	mov    -0x4c(%rbp),%eax
  401a20:	c1 e8 10             	shr    $0x10,%eax
  401a23:	89 c2                	mov    %eax,%edx
  401a25:	83 e2 1f             	and    $0x1f,%edx
  401a28:	48 8b 45 b8          	mov    -0x48(%rbp),%rax
  401a2c:	89 d2                	mov    %edx,%edx
  401a2e:	48 83 c2 04          	add    $0x4,%rdx
  401a32:	8b 1c 90             	mov    (%rax,%rdx,4),%ebx
  401a35:	8b 45 b4             	mov    -0x4c(%rbp),%eax
  401a38:	89 c7                	mov    %eax,%edi
  401a3a:	e8 39 fb ff ff       	callq  401578 <zeroeximm>
  401a3f:	89 d9                	mov    %ebx,%ecx
  401a41:	31 c1                	xor    %eax,%ecx
  401a43:	48 8b 45 b8          	mov    -0x48(%rbp),%rax
  401a47:	44 89 e2             	mov    %r12d,%edx
  401a4a:	48 83 c2 04          	add    $0x4,%rdx
  401a4e:	89 0c 90             	mov    %ecx,(%rax,%rdx,4)
  401a51:	e9 ab 07 00 00       	jmpq   402201 <exectued+0xc29>
  401a56:	8b 45 b4             	mov    -0x4c(%rbp),%eax
  401a59:	c1 e8 15             	shr    $0x15,%eax
  401a5c:	41 89 c4             	mov    %eax,%r12d
  401a5f:	41 83 e4 1f          	and    $0x1f,%r12d
  401a63:	8b 45 b4             	mov    -0x4c(%rbp),%eax
  401a66:	c1 e8 10             	shr    $0x10,%eax
  401a69:	89 c2                	mov    %eax,%edx
  401a6b:	83 e2 1f             	and    $0x1f,%edx
  401a6e:	48 8b 45 b8          	mov    -0x48(%rbp),%rax
  401a72:	89 d2                	mov    %edx,%edx
  401a74:	48 83 c2 04          	add    $0x4,%rdx
  401a78:	8b 1c 90             	mov    (%rax,%rdx,4),%ebx
  401a7b:	8b 45 b4             	mov    -0x4c(%rbp),%eax
  401a7e:	89 c7                	mov    %eax,%edi
  401a80:	e8 f3 fa ff ff       	callq  401578 <zeroeximm>
  401a85:	89 da                	mov    %ebx,%edx
  401a87:	89 c1                	mov    %eax,%ecx
  401a89:	d3 e2                	shl    %cl,%edx
  401a8b:	89 55 ac             	mov    %edx,-0x54(%rbp)
  401a8e:	48 8b 45 b8          	mov    -0x48(%rbp),%rax
  401a92:	44 89 e2             	mov    %r12d,%edx
  401a95:	48 83 c2 04          	add    $0x4,%rdx
  401a99:	8b 4d ac             	mov    -0x54(%rbp),%ecx
  401a9c:	89 0c 90             	mov    %ecx,(%rax,%rdx,4)
  401a9f:	e9 5d 07 00 00       	jmpq   402201 <exectued+0xc29>
  401aa4:	8b 45 b4             	mov    -0x4c(%rbp),%eax
  401aa7:	c1 e8 15             	shr    $0x15,%eax
  401aaa:	41 89 c4             	mov    %eax,%r12d
  401aad:	41 83 e4 1f          	and    $0x1f,%r12d
  401ab1:	8b 45 b4             	mov    -0x4c(%rbp),%eax
  401ab4:	c1 e8 10             	shr    $0x10,%eax
  401ab7:	89 c2                	mov    %eax,%edx
  401ab9:	83 e2 1f             	and    $0x1f,%edx
  401abc:	48 8b 45 b8          	mov    -0x48(%rbp),%rax
  401ac0:	89 d2                	mov    %edx,%edx
  401ac2:	48 83 c2 04          	add    $0x4,%rdx
  401ac6:	8b 1c 90             	mov    (%rax,%rdx,4),%ebx
  401ac9:	8b 45 b4             	mov    -0x4c(%rbp),%eax
  401acc:	89 c7                	mov    %eax,%edi
  401ace:	e8 a5 fa ff ff       	callq  401578 <zeroeximm>
  401ad3:	89 da                	mov    %ebx,%edx
  401ad5:	89 c1                	mov    %eax,%ecx
  401ad7:	d3 ea                	shr    %cl,%edx
  401ad9:	89 55 ac             	mov    %edx,-0x54(%rbp)
  401adc:	48 8b 45 b8          	mov    -0x48(%rbp),%rax
  401ae0:	44 89 e2             	mov    %r12d,%edx
  401ae3:	48 83 c2 04          	add    $0x4,%rdx
  401ae7:	8b 4d ac             	mov    -0x54(%rbp),%ecx
  401aea:	89 0c 90             	mov    %ecx,(%rax,%rdx,4)
  401aed:	e9 0f 07 00 00       	jmpq   402201 <exectued+0xc29>
  401af2:	8b 45 b4             	mov    -0x4c(%rbp),%eax
  401af5:	c1 e8 10             	shr    $0x10,%eax
  401af8:	89 c2                	mov    %eax,%edx
  401afa:	83 e2 1f             	and    $0x1f,%edx
  401afd:	48 8b 45 b8          	mov    -0x48(%rbp),%rax
  401b01:	89 d2                	mov    %edx,%edx
  401b03:	48 83 c2 04          	add    $0x4,%rdx
  401b07:	8b 04 90             	mov    (%rax,%rdx,4),%eax
  401b0a:	25 00 00 00 80       	and    $0x80000000,%eax
  401b0f:	89 45 c0             	mov    %eax,-0x40(%rbp)
  401b12:	8b 45 b4             	mov    -0x4c(%rbp),%eax
  401b15:	c1 e8 15             	shr    $0x15,%eax
  401b18:	41 89 c4             	mov    %eax,%r12d
  401b1b:	41 83 e4 1f          	and    $0x1f,%r12d
  401b1f:	8b 45 b4             	mov    -0x4c(%rbp),%eax
  401b22:	c1 e8 10             	shr    $0x10,%eax
  401b25:	89 c2                	mov    %eax,%edx
  401b27:	83 e2 1f             	and    $0x1f,%edx
  401b2a:	48 8b 45 b8          	mov    -0x48(%rbp),%rax
  401b2e:	89 d2                	mov    %edx,%edx
  401b30:	48 83 c2 04          	add    $0x4,%rdx
  401b34:	8b 1c 90             	mov    (%rax,%rdx,4),%ebx
  401b37:	8b 45 b4             	mov    -0x4c(%rbp),%eax
  401b3a:	89 c7                	mov    %eax,%edi
  401b3c:	e8 37 fa ff ff       	callq  401578 <zeroeximm>
  401b41:	89 da                	mov    %ebx,%edx
  401b43:	89 c1                	mov    %eax,%ecx
  401b45:	d3 e2                	shl    %cl,%edx
  401b47:	89 55 ac             	mov    %edx,-0x54(%rbp)
  401b4a:	48 8b 45 b8          	mov    -0x48(%rbp),%rax
  401b4e:	44 89 e2             	mov    %r12d,%edx
  401b51:	48 83 c2 04          	add    $0x4,%rdx
  401b55:	8b 4d ac             	mov    -0x54(%rbp),%ecx
  401b58:	89 0c 90             	mov    %ecx,(%rax,%rdx,4)
  401b5b:	8b 45 b4             	mov    -0x4c(%rbp),%eax
  401b5e:	c1 e8 15             	shr    $0x15,%eax
  401b61:	89 c1                	mov    %eax,%ecx
  401b63:	83 e1 1f             	and    $0x1f,%ecx
  401b66:	8b 45 b4             	mov    -0x4c(%rbp),%eax
  401b69:	c1 e8 15             	shr    $0x15,%eax
  401b6c:	89 c2                	mov    %eax,%edx
  401b6e:	83 e2 1f             	and    $0x1f,%edx
  401b71:	48 8b 45 b8          	mov    -0x48(%rbp),%rax
  401b75:	89 d2                	mov    %edx,%edx
  401b77:	48 83 c2 04          	add    $0x4,%rdx
  401b7b:	8b 04 90             	mov    (%rax,%rdx,4),%eax
  401b7e:	89 c2                	mov    %eax,%edx
  401b80:	0b 55 c0             	or     -0x40(%rbp),%edx
  401b83:	48 8b 45 b8          	mov    -0x48(%rbp),%rax
  401b87:	89 c9                	mov    %ecx,%ecx
  401b89:	48 83 c1 04          	add    $0x4,%rcx
  401b8d:	89 14 88             	mov    %edx,(%rax,%rcx,4)
  401b90:	e9 6c 06 00 00       	jmpq   402201 <exectued+0xc29>
  401b95:	8b 45 b4             	mov    -0x4c(%rbp),%eax
  401b98:	c1 e8 15             	shr    $0x15,%eax
  401b9b:	41 89 c4             	mov    %eax,%r12d
  401b9e:	41 83 e4 1f          	and    $0x1f,%r12d
  401ba2:	8b 45 b4             	mov    -0x4c(%rbp),%eax
  401ba5:	c1 e8 10             	shr    $0x10,%eax
  401ba8:	89 c2                	mov    %eax,%edx
  401baa:	83 e2 1f             	and    $0x1f,%edx
  401bad:	48 8b 45 b8          	mov    -0x48(%rbp),%rax
  401bb1:	89 d2                	mov    %edx,%edx
  401bb3:	48 83 c2 04          	add    $0x4,%rdx
  401bb7:	8b 04 90             	mov    (%rax,%rdx,4),%eax
  401bba:	89 c3                	mov    %eax,%ebx
  401bbc:	8b 45 b4             	mov    -0x4c(%rbp),%eax
  401bbf:	89 c7                	mov    %eax,%edi
  401bc1:	e8 b2 f9 ff ff       	callq  401578 <zeroeximm>
  401bc6:	89 da                	mov    %ebx,%edx
  401bc8:	89 c1                	mov    %eax,%ecx
  401bca:	d3 fa                	sar    %cl,%edx
  401bcc:	89 d0                	mov    %edx,%eax
  401bce:	89 c2                	mov    %eax,%edx
  401bd0:	48 8b 45 b8          	mov    -0x48(%rbp),%rax
  401bd4:	44 89 e1             	mov    %r12d,%ecx
  401bd7:	48 83 c1 04          	add    $0x4,%rcx
  401bdb:	89 14 88             	mov    %edx,(%rax,%rcx,4)
  401bde:	e9 1e 06 00 00       	jmpq   402201 <exectued+0xc29>
  401be3:	8b 45 b4             	mov    -0x4c(%rbp),%eax
  401be6:	c1 e8 15             	shr    $0x15,%eax
  401be9:	89 c2                	mov    %eax,%edx
  401beb:	83 e2 1f             	and    $0x1f,%edx
  401bee:	48 8b 45 b8          	mov    -0x48(%rbp),%rax
  401bf2:	89 d2                	mov    %edx,%edx
  401bf4:	48 83 c2 04          	add    $0x4,%rdx
  401bf8:	8b 04 90             	mov    (%rax,%rdx,4),%eax
  401bfb:	89 c2                	mov    %eax,%edx
  401bfd:	8b 45 b4             	mov    -0x4c(%rbp),%eax
  401c00:	c1 e8 10             	shr    $0x10,%eax
  401c03:	89 c1                	mov    %eax,%ecx
  401c05:	83 e1 1f             	and    $0x1f,%ecx
  401c08:	48 8b 45 b8          	mov    -0x48(%rbp),%rax
  401c0c:	89 c9                	mov    %ecx,%ecx
  401c0e:	48 83 c1 04          	add    $0x4,%rcx
  401c12:	8b 04 88             	mov    (%rax,%rcx,4),%eax
  401c15:	39 c2                	cmp    %eax,%edx
  401c17:	0f 8d c8 05 00 00    	jge    4021e5 <exectued+0xc0d>
  401c1d:	8b 45 b4             	mov    -0x4c(%rbp),%eax
  401c20:	89 c7                	mov    %eax,%edi
  401c22:	e8 fd f8 ff ff       	callq  401524 <signedimm>
  401c27:	89 45 c4             	mov    %eax,-0x3c(%rbp)
  401c2a:	48 8b 45 b8          	mov    -0x48(%rbp),%rax
  401c2e:	8b 40 08             	mov    0x8(%rax),%eax
  401c31:	8d 50 fc             	lea    -0x4(%rax),%edx
  401c34:	48 8b 45 b8          	mov    -0x48(%rbp),%rax
  401c38:	89 50 08             	mov    %edx,0x8(%rax)
  401c3b:	48 8b 45 b8          	mov    -0x48(%rbp),%rax
  401c3f:	8b 50 08             	mov    0x8(%rax),%edx
  401c42:	8b 45 c4             	mov    -0x3c(%rbp),%eax
  401c45:	c1 e0 02             	shl    $0x2,%eax
  401c48:	01 c2                	add    %eax,%edx
  401c4a:	48 8b 45 b8          	mov    -0x48(%rbp),%rax
  401c4e:	89 50 08             	mov    %edx,0x8(%rax)
  401c51:	e9 ab 05 00 00       	jmpq   402201 <exectued+0xc29>
  401c56:	8b 45 b4             	mov    -0x4c(%rbp),%eax
  401c59:	c1 e8 15             	shr    $0x15,%eax
  401c5c:	89 c2                	mov    %eax,%edx
  401c5e:	83 e2 1f             	and    $0x1f,%edx
  401c61:	48 8b 45 b8          	mov    -0x48(%rbp),%rax
  401c65:	89 d2                	mov    %edx,%edx
  401c67:	48 83 c2 04          	add    $0x4,%rdx
  401c6b:	8b 04 90             	mov    (%rax,%rdx,4),%eax
  401c6e:	89 c2                	mov    %eax,%edx
  401c70:	8b 45 b4             	mov    -0x4c(%rbp),%eax
  401c73:	c1 e8 10             	shr    $0x10,%eax
  401c76:	89 c1                	mov    %eax,%ecx
  401c78:	83 e1 1f             	and    $0x1f,%ecx
  401c7b:	48 8b 45 b8          	mov    -0x48(%rbp),%rax
  401c7f:	89 c9                	mov    %ecx,%ecx
  401c81:	48 83 c1 04          	add    $0x4,%rcx
  401c85:	8b 04 88             	mov    (%rax,%rcx,4),%eax
  401c88:	39 c2                	cmp    %eax,%edx
  401c8a:	0f 8e 58 05 00 00    	jle    4021e8 <exectued+0xc10>
  401c90:	8b 45 b4             	mov    -0x4c(%rbp),%eax
  401c93:	89 c7                	mov    %eax,%edi
  401c95:	e8 8a f8 ff ff       	callq  401524 <signedimm>
  401c9a:	89 45 c8             	mov    %eax,-0x38(%rbp)
  401c9d:	48 8b 45 b8          	mov    -0x48(%rbp),%rax
  401ca1:	8b 40 08             	mov    0x8(%rax),%eax
  401ca4:	8d 50 fc             	lea    -0x4(%rax),%edx
  401ca7:	48 8b 45 b8          	mov    -0x48(%rbp),%rax
  401cab:	89 50 08             	mov    %edx,0x8(%rax)
  401cae:	48 8b 45 b8          	mov    -0x48(%rbp),%rax
  401cb2:	8b 50 08             	mov    0x8(%rax),%edx
  401cb5:	8b 45 c8             	mov    -0x38(%rbp),%eax
  401cb8:	c1 e0 02             	shl    $0x2,%eax
  401cbb:	01 c2                	add    %eax,%edx
  401cbd:	48 8b 45 b8          	mov    -0x48(%rbp),%rax
  401cc1:	89 50 08             	mov    %edx,0x8(%rax)
  401cc4:	e9 38 05 00 00       	jmpq   402201 <exectued+0xc29>
  401cc9:	8b 45 b4             	mov    -0x4c(%rbp),%eax
  401ccc:	c1 e8 15             	shr    $0x15,%eax
  401ccf:	89 c2                	mov    %eax,%edx
  401cd1:	83 e2 1f             	and    $0x1f,%edx
  401cd4:	48 8b 45 b8          	mov    -0x48(%rbp),%rax
  401cd8:	89 d2                	mov    %edx,%edx
  401cda:	48 83 c2 04          	add    $0x4,%rdx
  401cde:	8b 04 90             	mov    (%rax,%rdx,4),%eax
  401ce1:	89 c2                	mov    %eax,%edx
  401ce3:	8b 45 b4             	mov    -0x4c(%rbp),%eax
  401ce6:	c1 e8 10             	shr    $0x10,%eax
  401ce9:	89 c1                	mov    %eax,%ecx
  401ceb:	83 e1 1f             	and    $0x1f,%ecx
  401cee:	48 8b 45 b8          	mov    -0x48(%rbp),%rax
  401cf2:	89 c9                	mov    %ecx,%ecx
  401cf4:	48 83 c1 04          	add    $0x4,%rcx
  401cf8:	8b 04 88             	mov    (%rax,%rcx,4),%eax
  401cfb:	39 c2                	cmp    %eax,%edx
  401cfd:	0f 8f e8 04 00 00    	jg     4021eb <exectued+0xc13>
  401d03:	8b 45 b4             	mov    -0x4c(%rbp),%eax
  401d06:	89 c7                	mov    %eax,%edi
  401d08:	e8 17 f8 ff ff       	callq  401524 <signedimm>
  401d0d:	89 45 cc             	mov    %eax,-0x34(%rbp)
  401d10:	48 8b 45 b8          	mov    -0x48(%rbp),%rax
  401d14:	8b 40 08             	mov    0x8(%rax),%eax
  401d17:	8d 50 fc             	lea    -0x4(%rax),%edx
  401d1a:	48 8b 45 b8          	mov    -0x48(%rbp),%rax
  401d1e:	89 50 08             	mov    %edx,0x8(%rax)
  401d21:	48 8b 45 b8          	mov    -0x48(%rbp),%rax
  401d25:	8b 50 08             	mov    0x8(%rax),%edx
  401d28:	8b 45 cc             	mov    -0x34(%rbp),%eax
  401d2b:	c1 e0 02             	shl    $0x2,%eax
  401d2e:	01 c2                	add    %eax,%edx
  401d30:	48 8b 45 b8          	mov    -0x48(%rbp),%rax
  401d34:	89 50 08             	mov    %edx,0x8(%rax)
  401d37:	e9 c5 04 00 00       	jmpq   402201 <exectued+0xc29>
  401d3c:	8b 45 b4             	mov    -0x4c(%rbp),%eax
  401d3f:	c1 e8 15             	shr    $0x15,%eax
  401d42:	89 c2                	mov    %eax,%edx
  401d44:	83 e2 1f             	and    $0x1f,%edx
  401d47:	48 8b 45 b8          	mov    -0x48(%rbp),%rax
  401d4b:	89 d2                	mov    %edx,%edx
  401d4d:	48 83 c2 04          	add    $0x4,%rdx
  401d51:	8b 04 90             	mov    (%rax,%rdx,4),%eax
  401d54:	89 c2                	mov    %eax,%edx
  401d56:	8b 45 b4             	mov    -0x4c(%rbp),%eax
  401d59:	c1 e8 10             	shr    $0x10,%eax
  401d5c:	89 c1                	mov    %eax,%ecx
  401d5e:	83 e1 1f             	and    $0x1f,%ecx
  401d61:	48 8b 45 b8          	mov    -0x48(%rbp),%rax
  401d65:	89 c9                	mov    %ecx,%ecx
  401d67:	48 83 c1 04          	add    $0x4,%rcx
  401d6b:	8b 04 88             	mov    (%rax,%rcx,4),%eax
  401d6e:	39 c2                	cmp    %eax,%edx
  401d70:	0f 8c 78 04 00 00    	jl     4021ee <exectued+0xc16>
  401d76:	8b 45 b4             	mov    -0x4c(%rbp),%eax
  401d79:	89 c7                	mov    %eax,%edi
  401d7b:	e8 a4 f7 ff ff       	callq  401524 <signedimm>
  401d80:	89 45 d0             	mov    %eax,-0x30(%rbp)
  401d83:	48 8b 45 b8          	mov    -0x48(%rbp),%rax
  401d87:	8b 40 08             	mov    0x8(%rax),%eax
  401d8a:	8d 50 fc             	lea    -0x4(%rax),%edx
  401d8d:	48 8b 45 b8          	mov    -0x48(%rbp),%rax
  401d91:	89 50 08             	mov    %edx,0x8(%rax)
  401d94:	48 8b 45 b8          	mov    -0x48(%rbp),%rax
  401d98:	8b 50 08             	mov    0x8(%rax),%edx
  401d9b:	8b 45 d0             	mov    -0x30(%rbp),%eax
  401d9e:	c1 e0 02             	shl    $0x2,%eax
  401da1:	01 c2                	add    %eax,%edx
  401da3:	48 8b 45 b8          	mov    -0x48(%rbp),%rax
  401da7:	89 50 08             	mov    %edx,0x8(%rax)
  401daa:	e9 52 04 00 00       	jmpq   402201 <exectued+0xc29>
  401daf:	8b 45 b4             	mov    -0x4c(%rbp),%eax
  401db2:	c1 e8 15             	shr    $0x15,%eax
  401db5:	89 c2                	mov    %eax,%edx
  401db7:	83 e2 1f             	and    $0x1f,%edx
  401dba:	48 8b 45 b8          	mov    -0x48(%rbp),%rax
  401dbe:	89 d2                	mov    %edx,%edx
  401dc0:	48 83 c2 04          	add    $0x4,%rdx
  401dc4:	8b 14 90             	mov    (%rax,%rdx,4),%edx
  401dc7:	8b 45 b4             	mov    -0x4c(%rbp),%eax
  401dca:	c1 e8 10             	shr    $0x10,%eax
  401dcd:	89 c1                	mov    %eax,%ecx
  401dcf:	83 e1 1f             	and    $0x1f,%ecx
  401dd2:	48 8b 45 b8          	mov    -0x48(%rbp),%rax
  401dd6:	89 c9                	mov    %ecx,%ecx
  401dd8:	48 83 c1 04          	add    $0x4,%rcx
  401ddc:	8b 04 88             	mov    (%rax,%rcx,4),%eax
  401ddf:	39 c2                	cmp    %eax,%edx
  401de1:	0f 83 0a 04 00 00    	jae    4021f1 <exectued+0xc19>
  401de7:	8b 45 b4             	mov    -0x4c(%rbp),%eax
  401dea:	89 c7                	mov    %eax,%edi
  401dec:	e8 33 f7 ff ff       	callq  401524 <signedimm>
  401df1:	89 45 d4             	mov    %eax,-0x2c(%rbp)
  401df4:	48 8b 45 b8          	mov    -0x48(%rbp),%rax
  401df8:	8b 40 08             	mov    0x8(%rax),%eax
  401dfb:	8d 50 fc             	lea    -0x4(%rax),%edx
  401dfe:	48 8b 45 b8          	mov    -0x48(%rbp),%rax
  401e02:	89 50 08             	mov    %edx,0x8(%rax)
  401e05:	48 8b 45 b8          	mov    -0x48(%rbp),%rax
  401e09:	8b 50 08             	mov    0x8(%rax),%edx
  401e0c:	8b 45 d4             	mov    -0x2c(%rbp),%eax
  401e0f:	c1 e0 02             	shl    $0x2,%eax
  401e12:	01 c2                	add    %eax,%edx
  401e14:	48 8b 45 b8          	mov    -0x48(%rbp),%rax
  401e18:	89 50 08             	mov    %edx,0x8(%rax)
  401e1b:	e9 e1 03 00 00       	jmpq   402201 <exectued+0xc29>
  401e20:	8b 45 b4             	mov    -0x4c(%rbp),%eax
  401e23:	c1 e8 15             	shr    $0x15,%eax
  401e26:	89 c2                	mov    %eax,%edx
  401e28:	83 e2 1f             	and    $0x1f,%edx
  401e2b:	48 8b 45 b8          	mov    -0x48(%rbp),%rax
  401e2f:	89 d2                	mov    %edx,%edx
  401e31:	48 83 c2 04          	add    $0x4,%rdx
  401e35:	8b 14 90             	mov    (%rax,%rdx,4),%edx
  401e38:	8b 45 b4             	mov    -0x4c(%rbp),%eax
  401e3b:	c1 e8 10             	shr    $0x10,%eax
  401e3e:	89 c1                	mov    %eax,%ecx
  401e40:	83 e1 1f             	and    $0x1f,%ecx
  401e43:	48 8b 45 b8          	mov    -0x48(%rbp),%rax
  401e47:	89 c9                	mov    %ecx,%ecx
  401e49:	48 83 c1 04          	add    $0x4,%rcx
  401e4d:	8b 04 88             	mov    (%rax,%rcx,4),%eax
  401e50:	39 c2                	cmp    %eax,%edx
  401e52:	0f 86 9c 03 00 00    	jbe    4021f4 <exectued+0xc1c>
  401e58:	8b 45 b4             	mov    -0x4c(%rbp),%eax
  401e5b:	89 c7                	mov    %eax,%edi
  401e5d:	e8 c2 f6 ff ff       	callq  401524 <signedimm>
  401e62:	89 45 d8             	mov    %eax,-0x28(%rbp)
  401e65:	48 8b 45 b8          	mov    -0x48(%rbp),%rax
  401e69:	8b 40 08             	mov    0x8(%rax),%eax
  401e6c:	8d 50 fc             	lea    -0x4(%rax),%edx
  401e6f:	48 8b 45 b8          	mov    -0x48(%rbp),%rax
  401e73:	89 50 08             	mov    %edx,0x8(%rax)
  401e76:	48 8b 45 b8          	mov    -0x48(%rbp),%rax
  401e7a:	8b 50 08             	mov    0x8(%rax),%edx
  401e7d:	8b 45 d8             	mov    -0x28(%rbp),%eax
  401e80:	c1 e0 02             	shl    $0x2,%eax
  401e83:	01 c2                	add    %eax,%edx
  401e85:	48 8b 45 b8          	mov    -0x48(%rbp),%rax
  401e89:	89 50 08             	mov    %edx,0x8(%rax)
  401e8c:	e9 70 03 00 00       	jmpq   402201 <exectued+0xc29>
  401e91:	8b 45 b4             	mov    -0x4c(%rbp),%eax
  401e94:	c1 e8 15             	shr    $0x15,%eax
  401e97:	89 c2                	mov    %eax,%edx
  401e99:	83 e2 1f             	and    $0x1f,%edx
  401e9c:	48 8b 45 b8          	mov    -0x48(%rbp),%rax
  401ea0:	89 d2                	mov    %edx,%edx
  401ea2:	48 83 c2 04          	add    $0x4,%rdx
  401ea6:	8b 14 90             	mov    (%rax,%rdx,4),%edx
  401ea9:	8b 45 b4             	mov    -0x4c(%rbp),%eax
  401eac:	c1 e8 10             	shr    $0x10,%eax
  401eaf:	89 c1                	mov    %eax,%ecx
  401eb1:	83 e1 1f             	and    $0x1f,%ecx
  401eb4:	48 8b 45 b8          	mov    -0x48(%rbp),%rax
  401eb8:	89 c9                	mov    %ecx,%ecx
  401eba:	48 83 c1 04          	add    $0x4,%rcx
  401ebe:	8b 04 88             	mov    (%rax,%rcx,4),%eax
  401ec1:	39 c2                	cmp    %eax,%edx
  401ec3:	0f 87 2e 03 00 00    	ja     4021f7 <exectued+0xc1f>
  401ec9:	8b 45 b4             	mov    -0x4c(%rbp),%eax
  401ecc:	89 c7                	mov    %eax,%edi
  401ece:	e8 51 f6 ff ff       	callq  401524 <signedimm>
  401ed3:	89 45 dc             	mov    %eax,-0x24(%rbp)
  401ed6:	48 8b 45 b8          	mov    -0x48(%rbp),%rax
  401eda:	8b 40 08             	mov    0x8(%rax),%eax
  401edd:	8d 50 fc             	lea    -0x4(%rax),%edx
  401ee0:	48 8b 45 b8          	mov    -0x48(%rbp),%rax
  401ee4:	89 50 08             	mov    %edx,0x8(%rax)
  401ee7:	48 8b 45 b8          	mov    -0x48(%rbp),%rax
  401eeb:	8b 50 08             	mov    0x8(%rax),%edx
  401eee:	8b 45 dc             	mov    -0x24(%rbp),%eax
  401ef1:	c1 e0 02             	shl    $0x2,%eax
  401ef4:	01 c2                	add    %eax,%edx
  401ef6:	48 8b 45 b8          	mov    -0x48(%rbp),%rax
  401efa:	89 50 08             	mov    %edx,0x8(%rax)
  401efd:	e9 ff 02 00 00       	jmpq   402201 <exectued+0xc29>
  401f02:	8b 45 b4             	mov    -0x4c(%rbp),%eax
  401f05:	c1 e8 15             	shr    $0x15,%eax
  401f08:	89 c2                	mov    %eax,%edx
  401f0a:	83 e2 1f             	and    $0x1f,%edx
  401f0d:	48 8b 45 b8          	mov    -0x48(%rbp),%rax
  401f11:	89 d2                	mov    %edx,%edx
  401f13:	48 83 c2 04          	add    $0x4,%rdx
  401f17:	8b 14 90             	mov    (%rax,%rdx,4),%edx
  401f1a:	8b 45 b4             	mov    -0x4c(%rbp),%eax
  401f1d:	c1 e8 10             	shr    $0x10,%eax
  401f20:	89 c1                	mov    %eax,%ecx
  401f22:	83 e1 1f             	and    $0x1f,%ecx
  401f25:	48 8b 45 b8          	mov    -0x48(%rbp),%rax
  401f29:	89 c9                	mov    %ecx,%ecx
  401f2b:	48 83 c1 04          	add    $0x4,%rcx
  401f2f:	8b 04 88             	mov    (%rax,%rcx,4),%eax
  401f32:	39 c2                	cmp    %eax,%edx
  401f34:	0f 82 c0 02 00 00    	jb     4021fa <exectued+0xc22>
  401f3a:	8b 45 b4             	mov    -0x4c(%rbp),%eax
  401f3d:	89 c7                	mov    %eax,%edi
  401f3f:	e8 e0 f5 ff ff       	callq  401524 <signedimm>
  401f44:	89 45 e0             	mov    %eax,-0x20(%rbp)
  401f47:	48 8b 45 b8          	mov    -0x48(%rbp),%rax
  401f4b:	8b 40 08             	mov    0x8(%rax),%eax
  401f4e:	8d 50 fc             	lea    -0x4(%rax),%edx
  401f51:	48 8b 45 b8          	mov    -0x48(%rbp),%rax
  401f55:	89 50 08             	mov    %edx,0x8(%rax)
  401f58:	48 8b 45 b8          	mov    -0x48(%rbp),%rax
  401f5c:	8b 50 08             	mov    0x8(%rax),%edx
  401f5f:	8b 45 e0             	mov    -0x20(%rbp),%eax
  401f62:	c1 e0 02             	shl    $0x2,%eax
  401f65:	01 c2                	add    %eax,%edx
  401f67:	48 8b 45 b8          	mov    -0x48(%rbp),%rax
  401f6b:	89 50 08             	mov    %edx,0x8(%rax)
  401f6e:	e9 8e 02 00 00       	jmpq   402201 <exectued+0xc29>
  401f73:	8b 45 b4             	mov    -0x4c(%rbp),%eax
  401f76:	c1 e8 15             	shr    $0x15,%eax
  401f79:	89 c2                	mov    %eax,%edx
  401f7b:	83 e2 1f             	and    $0x1f,%edx
  401f7e:	48 8b 45 b8          	mov    -0x48(%rbp),%rax
  401f82:	89 d2                	mov    %edx,%edx
  401f84:	48 83 c2 04          	add    $0x4,%rdx
  401f88:	8b 14 90             	mov    (%rax,%rdx,4),%edx
  401f8b:	8b 45 b4             	mov    -0x4c(%rbp),%eax
  401f8e:	c1 e8 10             	shr    $0x10,%eax
  401f91:	89 c1                	mov    %eax,%ecx
  401f93:	83 e1 1f             	and    $0x1f,%ecx
  401f96:	48 8b 45 b8          	mov    -0x48(%rbp),%rax
  401f9a:	89 c9                	mov    %ecx,%ecx
  401f9c:	48 83 c1 04          	add    $0x4,%rcx
  401fa0:	8b 04 88             	mov    (%rax,%rcx,4),%eax
  401fa3:	39 c2                	cmp    %eax,%edx
  401fa5:	0f 85 52 02 00 00    	jne    4021fd <exectued+0xc25>
  401fab:	8b 45 b4             	mov    -0x4c(%rbp),%eax
  401fae:	89 c7                	mov    %eax,%edi
  401fb0:	e8 6f f5 ff ff       	callq  401524 <signedimm>
  401fb5:	89 45 e4             	mov    %eax,-0x1c(%rbp)
  401fb8:	48 8b 45 b8          	mov    -0x48(%rbp),%rax
  401fbc:	8b 40 08             	mov    0x8(%rax),%eax
  401fbf:	8d 50 fc             	lea    -0x4(%rax),%edx
  401fc2:	48 8b 45 b8          	mov    -0x48(%rbp),%rax
  401fc6:	89 50 08             	mov    %edx,0x8(%rax)
  401fc9:	48 8b 45 b8          	mov    -0x48(%rbp),%rax
  401fcd:	8b 50 08             	mov    0x8(%rax),%edx
  401fd0:	8b 45 e4             	mov    -0x1c(%rbp),%eax
  401fd3:	c1 e0 02             	shl    $0x2,%eax
  401fd6:	01 c2                	add    %eax,%edx
  401fd8:	48 8b 45 b8          	mov    -0x48(%rbp),%rax
  401fdc:	89 50 08             	mov    %edx,0x8(%rax)
  401fdf:	e9 1d 02 00 00       	jmpq   402201 <exectued+0xc29>
  401fe4:	8b 45 b4             	mov    -0x4c(%rbp),%eax
  401fe7:	c1 e8 15             	shr    $0x15,%eax
  401fea:	89 c2                	mov    %eax,%edx
  401fec:	83 e2 1f             	and    $0x1f,%edx
  401fef:	48 8b 45 b8          	mov    -0x48(%rbp),%rax
  401ff3:	89 d2                	mov    %edx,%edx
  401ff5:	48 83 c2 04          	add    $0x4,%rdx
  401ff9:	8b 14 90             	mov    (%rax,%rdx,4),%edx
  401ffc:	8b 45 b4             	mov    -0x4c(%rbp),%eax
  401fff:	c1 e8 10             	shr    $0x10,%eax
  402002:	89 c1                	mov    %eax,%ecx
  402004:	83 e1 1f             	and    $0x1f,%ecx
  402007:	48 8b 45 b8          	mov    -0x48(%rbp),%rax
  40200b:	89 c9                	mov    %ecx,%ecx
  40200d:	48 83 c1 04          	add    $0x4,%rcx
  402011:	8b 04 88             	mov    (%rax,%rcx,4),%eax
  402014:	39 c2                	cmp    %eax,%edx
  402016:	0f 84 e4 01 00 00    	je     402200 <exectued+0xc28>
  40201c:	8b 45 b4             	mov    -0x4c(%rbp),%eax
  40201f:	89 c7                	mov    %eax,%edi
  402021:	e8 fe f4 ff ff       	callq  401524 <signedimm>
  402026:	89 45 e8             	mov    %eax,-0x18(%rbp)
  402029:	48 8b 45 b8          	mov    -0x48(%rbp),%rax
  40202d:	8b 40 08             	mov    0x8(%rax),%eax
  402030:	8d 50 fc             	lea    -0x4(%rax),%edx
  402033:	48 8b 45 b8          	mov    -0x48(%rbp),%rax
  402037:	89 50 08             	mov    %edx,0x8(%rax)
  40203a:	48 8b 45 b8          	mov    -0x48(%rbp),%rax
  40203e:	8b 50 08             	mov    0x8(%rax),%edx
  402041:	8b 45 e8             	mov    -0x18(%rbp),%eax
  402044:	c1 e0 02             	shl    $0x2,%eax
  402047:	01 c2                	add    %eax,%edx
  402049:	48 8b 45 b8          	mov    -0x48(%rbp),%rax
  40204d:	89 50 08             	mov    %edx,0x8(%rax)
  402050:	e9 ac 01 00 00       	jmpq   402201 <exectued+0xc29>
  402055:	8b 45 b4             	mov    -0x4c(%rbp),%eax
  402058:	89 c7                	mov    %eax,%edi
  40205a:	e8 ed f4 ff ff       	callq  40154c <signedjmpimm>
  40205f:	89 45 ec             	mov    %eax,-0x14(%rbp)
  402062:	48 8b 45 b8          	mov    -0x48(%rbp),%rax
  402066:	8b 40 08             	mov    0x8(%rax),%eax
  402069:	8d 50 fc             	lea    -0x4(%rax),%edx
  40206c:	48 8b 45 b8          	mov    -0x48(%rbp),%rax
  402070:	89 50 08             	mov    %edx,0x8(%rax)
  402073:	48 8b 45 b8          	mov    -0x48(%rbp),%rax
  402077:	8b 50 08             	mov    0x8(%rax),%edx
  40207a:	8b 45 ec             	mov    -0x14(%rbp),%eax
  40207d:	c1 e0 02             	shl    $0x2,%eax
  402080:	01 c2                	add    %eax,%edx
  402082:	48 8b 45 b8          	mov    -0x48(%rbp),%rax
  402086:	89 50 08             	mov    %edx,0x8(%rax)
  402089:	e9 73 01 00 00       	jmpq   402201 <exectued+0xc29>
  40208e:	8b 45 b4             	mov    -0x4c(%rbp),%eax
  402091:	c1 e8 15             	shr    $0x15,%eax
  402094:	89 c1                	mov    %eax,%ecx
  402096:	83 e1 1f             	and    $0x1f,%ecx
  402099:	8b 45 b4             	mov    -0x4c(%rbp),%eax
  40209c:	c1 e8 10             	shr    $0x10,%eax
  40209f:	89 c2                	mov    %eax,%edx
  4020a1:	83 e2 1f             	and    $0x1f,%edx
  4020a4:	48 8b 45 b8          	mov    -0x48(%rbp),%rax
  4020a8:	89 d2                	mov    %edx,%edx
  4020aa:	48 83 c2 04          	add    $0x4,%rdx
  4020ae:	8b 14 90             	mov    (%rax,%rdx,4),%edx
  4020b1:	48 8b 45 b8          	mov    -0x48(%rbp),%rax
  4020b5:	89 c9                	mov    %ecx,%ecx
  4020b7:	48 83 c1 04          	add    $0x4,%rcx
  4020bb:	89 14 88             	mov    %edx,(%rax,%rcx,4)
  4020be:	e9 3e 01 00 00       	jmpq   402201 <exectued+0xc29>
  4020c3:	8b 45 b4             	mov    -0x4c(%rbp),%eax
  4020c6:	c1 e8 15             	shr    $0x15,%eax
  4020c9:	89 c3                	mov    %eax,%ebx
  4020cb:	83 e3 1f             	and    $0x1f,%ebx
  4020ce:	8b 45 b4             	mov    -0x4c(%rbp),%eax
  4020d1:	c1 e8 10             	shr    $0x10,%eax
  4020d4:	89 c2                	mov    %eax,%edx
  4020d6:	83 e2 1f             	and    $0x1f,%edx
  4020d9:	48 8b 45 b8          	mov    -0x48(%rbp),%rax
  4020dd:	89 d2                	mov    %edx,%edx
  4020df:	48 83 c2 04          	add    $0x4,%rdx
  4020e3:	8b 14 90             	mov    (%rax,%rdx,4),%edx
  4020e6:	8b 45 b4             	mov    -0x4c(%rbp),%eax
  4020e9:	c1 e8 0b             	shr    $0xb,%eax
  4020ec:	89 c1                	mov    %eax,%ecx
  4020ee:	83 e1 1f             	and    $0x1f,%ecx
  4020f1:	48 8b 45 b8          	mov    -0x48(%rbp),%rax
  4020f5:	89 c9                	mov    %ecx,%ecx
  4020f7:	48 83 c1 04          	add    $0x4,%rcx
  4020fb:	8b 04 88             	mov    (%rax,%rcx,4),%eax
  4020fe:	01 c2                	add    %eax,%edx
  402100:	48 8b 45 b8          	mov    -0x48(%rbp),%rax
  402104:	48 8b 80 90 00 00 00 	mov    0x90(%rax),%rax
  40210b:	89 d6                	mov    %edx,%esi
  40210d:	48 89 c7             	mov    %rax,%rdi
  402110:	e8 a7 f3 ff ff       	callq  4014bc <read_memory_32>
  402115:	48 8b 55 b8          	mov    -0x48(%rbp),%rdx
  402119:	89 d9                	mov    %ebx,%ecx
  40211b:	48 83 c1 04          	add    $0x4,%rcx
  40211f:	89 04 8a             	mov    %eax,(%rdx,%rcx,4)
  402122:	e9 da 00 00 00       	jmpq   402201 <exectued+0xc29>
  402127:	8b 45 b4             	mov    -0x4c(%rbp),%eax
  40212a:	c1 e8 15             	shr    $0x15,%eax
  40212d:	89 c2                	mov    %eax,%edx
  40212f:	83 e2 1f             	and    $0x1f,%edx
  402132:	48 8b 45 b8          	mov    -0x48(%rbp),%rax
  402136:	89 d2                	mov    %edx,%edx
  402138:	48 83 c2 04          	add    $0x4,%rdx
  40213c:	8b 14 90             	mov    (%rax,%rdx,4),%edx
  40213f:	8b 45 b4             	mov    -0x4c(%rbp),%eax
  402142:	c1 e8 10             	shr    $0x10,%eax
  402145:	89 c1                	mov    %eax,%ecx
  402147:	83 e1 1f             	and    $0x1f,%ecx
  40214a:	48 8b 45 b8          	mov    -0x48(%rbp),%rax
  40214e:	89 c9                	mov    %ecx,%ecx
  402150:	48 83 c1 04          	add    $0x4,%rcx
  402154:	8b 0c 88             	mov    (%rax,%rcx,4),%ecx
  402157:	8b 45 b4             	mov    -0x4c(%rbp),%eax
  40215a:	c1 e8 0b             	shr    $0xb,%eax
  40215d:	89 c3                	mov    %eax,%ebx
  40215f:	83 e3 1f             	and    $0x1f,%ebx
  402162:	48 8b 45 b8          	mov    -0x48(%rbp),%rax
  402166:	89 db                	mov    %ebx,%ebx
  402168:	48 83 c3 04          	add    $0x4,%rbx
  40216c:	8b 04 98             	mov    (%rax,%rbx,4),%eax
  40216f:	01 c1                	add    %eax,%ecx
  402171:	48 8b 45 b8          	mov    -0x48(%rbp),%rax
  402175:	48 8b 80 90 00 00 00 	mov    0x90(%rax),%rax
  40217c:	89 ce                	mov    %ecx,%esi
  40217e:	48 89 c7             	mov    %rax,%rdi
  402181:	e8 69 f3 ff ff       	callq  4014ef <write_memory_32>
  402186:	eb 79                	jmp    402201 <exectued+0xc29>
  402188:	8b 45 b4             	mov    -0x4c(%rbp),%eax
  40218b:	c1 e8 15             	shr    $0x15,%eax
  40218e:	89 c3                	mov    %eax,%ebx
  402190:	83 e3 1f             	and    $0x1f,%ebx
  402193:	8b 45 b4             	mov    -0x4c(%rbp),%eax
  402196:	c1 e8 15             	shr    $0x15,%eax
  402199:	89 c2                	mov    %eax,%edx
  40219b:	83 e2 1f             	and    $0x1f,%edx
  40219e:	48 8b 45 b8          	mov    -0x48(%rbp),%rax
  4021a2:	89 d2                	mov    %edx,%edx
  4021a4:	48 83 c2 04          	add    $0x4,%rdx
  4021a8:	8b 04 90             	mov    (%rax,%rdx,4),%eax
  4021ab:	44 0f b7 e0          	movzwl %ax,%r12d
  4021af:	8b 45 b4             	mov    -0x4c(%rbp),%eax
  4021b2:	89 c7                	mov    %eax,%edi
  4021b4:	e8 bf f3 ff ff       	callq  401578 <zeroeximm>
  4021b9:	c1 e0 10             	shl    $0x10,%eax
  4021bc:	44 89 e1             	mov    %r12d,%ecx
  4021bf:	09 c1                	or     %eax,%ecx
  4021c1:	48 8b 45 b8          	mov    -0x48(%rbp),%rax
  4021c5:	89 da                	mov    %ebx,%edx
  4021c7:	48 83 c2 04          	add    $0x4,%rdx
  4021cb:	89 0c 90             	mov    %ecx,(%rax,%rdx,4)
  4021ce:	eb 31                	jmp    402201 <exectued+0xc29>
  4021d0:	48 8b 45 b8          	mov    -0x48(%rbp),%rax
  4021d4:	8b 40 0c             	mov    0xc(%rax),%eax
  4021d7:	89 c2                	mov    %eax,%edx
  4021d9:	83 e2 04             	and    $0x4,%edx
  4021dc:	48 8b 45 b8          	mov    -0x48(%rbp),%rax
  4021e0:	89 50 0c             	mov    %edx,0xc(%rax)
  4021e3:	eb 1c                	jmp    402201 <exectued+0xc29>
  4021e5:	90                   	nop
  4021e6:	eb 19                	jmp    402201 <exectued+0xc29>
  4021e8:	90                   	nop
  4021e9:	eb 16                	jmp    402201 <exectued+0xc29>
  4021eb:	90                   	nop
  4021ec:	eb 13                	jmp    402201 <exectued+0xc29>
  4021ee:	90                   	nop
  4021ef:	eb 10                	jmp    402201 <exectued+0xc29>
  4021f1:	90                   	nop
  4021f2:	eb 0d                	jmp    402201 <exectued+0xc29>
  4021f4:	90                   	nop
  4021f5:	eb 0a                	jmp    402201 <exectued+0xc29>
  4021f7:	90                   	nop
  4021f8:	eb 07                	jmp    402201 <exectued+0xc29>
  4021fa:	90                   	nop
  4021fb:	eb 04                	jmp    402201 <exectued+0xc29>
  4021fd:	90                   	nop
  4021fe:	eb 01                	jmp    402201 <exectued+0xc29>
  402200:	90                   	nop
  402201:	48 83 c4 50          	add    $0x50,%rsp
  402205:	5b                   	pop    %rbx
  402206:	41 5c                	pop    %r12
  402208:	c9                   	leaveq 
  402209:	c3                   	retq   

000000000040220a <code_generator>:
  40220a:	55                   	push   %rbp
  40220b:	48 89 e5             	mov    %rsp,%rbp
  40220e:	53                   	push   %rbx
  40220f:	48 83 ec 28          	sub    $0x28,%rsp
  402213:	48 89 7d d8          	mov    %rdi,-0x28(%rbp)
  402217:	89 75 d4             	mov    %esi,-0x2c(%rbp)
  40221a:	c7 45 ec 00 00 00 00 	movl   $0x0,-0x14(%rbp)
  402221:	eb 1b                	jmp    40223e <code_generator+0x34>
  402223:	8b 45 ec             	mov    -0x14(%rbp),%eax
  402226:	48 98                	cltq   
  402228:	48 c1 e0 02          	shl    $0x2,%rax
  40222c:	48 89 c3             	mov    %rax,%rbx
  40222f:	48 03 5d d8          	add    -0x28(%rbp),%rbx
  402233:	e8 48 ec ff ff       	callq  400e80 <rand@plt>
  402238:	89 03                	mov    %eax,(%rbx)
  40223a:	83 45 ec 01          	addl   $0x1,-0x14(%rbp)
  40223e:	8b 45 ec             	mov    -0x14(%rbp),%eax
  402241:	3b 45 d4             	cmp    -0x2c(%rbp),%eax
  402244:	7c dd                	jl     402223 <code_generator+0x19>
  402246:	48 83 c4 28          	add    $0x28,%rsp
  40224a:	5b                   	pop    %rbx
  40224b:	c9                   	leaveq 
  40224c:	c3                   	retq   

000000000040224d <code_collector>:
  40224d:	55                   	push   %rbp
  40224e:	48 89 e5             	mov    %rsp,%rbp
  402251:	48 83 ec 10          	sub    $0x10,%rsp
  402255:	48 89 7d f8          	mov    %rdi,-0x8(%rbp)
  402259:	89 75 f4             	mov    %esi,-0xc(%rbp)
  40225c:	8b 05 fe 22 20 00    	mov    0x2022fe(%rip),%eax        # 604560 <cur_size.5449>
  402262:	3d 1f 4e 00 00       	cmp    $0x4e1f,%eax
  402267:	7f 43                	jg     4022ac <code_collector+0x5f>
  402269:	8b 05 f1 22 20 00    	mov    0x2022f1(%rip),%eax        # 604560 <cur_size.5449>
  40226f:	48 98                	cltq   
  402271:	48 89 c2             	mov    %rax,%rdx
  402274:	48 c1 e2 04          	shl    $0x4,%rdx
  402278:	48 8b 45 f8          	mov    -0x8(%rbp),%rax
  40227c:	48 89 82 80 45 60 00 	mov    %rax,0x604580(%rdx)
  402283:	8b 05 d7 22 20 00    	mov    0x2022d7(%rip),%eax        # 604560 <cur_size.5449>
  402289:	48 98                	cltq   
  40228b:	48 89 c2             	mov    %rax,%rdx
  40228e:	48 c1 e2 04          	shl    $0x4,%rdx
  402292:	8b 45 f4             	mov    -0xc(%rbp),%eax
  402295:	89 82 88 45 60 00    	mov    %eax,0x604588(%rdx)
  40229b:	8b 05 bf 22 20 00    	mov    0x2022bf(%rip),%eax        # 604560 <cur_size.5449>
  4022a1:	83 c0 01             	add    $0x1,%eax
  4022a4:	89 05 b6 22 20 00    	mov    %eax,0x2022b6(%rip)        # 604560 <cur_size.5449>
  4022aa:	eb 0a                	jmp    4022b6 <code_collector+0x69>
  4022ac:	bf c0 31 40 00       	mov    $0x4031c0,%edi
  4022b1:	e8 3a ea ff ff       	callq  400cf0 <puts@plt>
  4022b6:	c9                   	leaveq 
  4022b7:	c3                   	retq   

00000000004022b8 <clone_cpu>:
  4022b8:	55                   	push   %rbp
  4022b9:	48 89 e5             	mov    %rsp,%rbp
  4022bc:	48 83 ec 10          	sub    $0x10,%rsp
  4022c0:	48 89 7d f8          	mov    %rdi,-0x8(%rbp)
  4022c4:	48 89 75 f0          	mov    %rsi,-0x10(%rbp)
  4022c8:	48 8b 45 f0          	mov    -0x10(%rbp),%rax
  4022cc:	8b 50 08             	mov    0x8(%rax),%edx
  4022cf:	48 8b 45 f8          	mov    -0x8(%rbp),%rax
  4022d3:	89 50 08             	mov    %edx,0x8(%rax)
  4022d6:	48 8b 45 f0          	mov    -0x10(%rbp),%rax
  4022da:	8b 50 04             	mov    0x4(%rax),%edx
  4022dd:	48 8b 45 f8          	mov    -0x8(%rbp),%rax
  4022e1:	89 50 04             	mov    %edx,0x4(%rax)
  4022e4:	48 8b 45 f0          	mov    -0x10(%rbp),%rax
  4022e8:	8b 50 0c             	mov    0xc(%rax),%edx
  4022eb:	48 8b 45 f8          	mov    -0x8(%rbp),%rax
  4022ef:	89 50 0c             	mov    %edx,0xc(%rax)
  4022f2:	bf da 31 40 00       	mov    $0x4031da,%edi
  4022f7:	e8 f4 e9 ff ff       	callq  400cf0 <puts@plt>
  4022fc:	48 8b 45 f0          	mov    -0x10(%rbp),%rax
  402300:	48 8d 48 10          	lea    0x10(%rax),%rcx
  402304:	48 8b 45 f8          	mov    -0x8(%rbp),%rax
  402308:	48 83 c0 10          	add    $0x10,%rax
  40230c:	ba 80 00 00 00       	mov    $0x80,%edx
  402311:	48 89 ce             	mov    %rcx,%rsi
  402314:	48 89 c7             	mov    %rax,%rdi
  402317:	e8 d4 ea ff ff       	callq  400df0 <memcpy@plt>
  40231c:	c9                   	leaveq 
  40231d:	c3                   	retq   

000000000040231e <cpu_main_loop>:
  40231e:	55                   	push   %rbp
  40231f:	48 89 e5             	mov    %rsp,%rbp
  402322:	48 83 ec 50          	sub    $0x50,%rsp
  402326:	48 89 7d b8          	mov    %rdi,-0x48(%rbp)
  40232a:	48 8b 45 b8          	mov    -0x48(%rbp),%rax
  40232e:	48 89 45 c8          	mov    %rax,-0x38(%rbp)
  402332:	48 8b 45 c8          	mov    -0x38(%rbp),%rax
  402336:	48 8b 00             	mov    (%rax),%rax
  402339:	48 89 45 d0          	mov    %rax,-0x30(%rbp)
  40233d:	48 8b 45 c8          	mov    -0x38(%rbp),%rax
  402341:	48 8b 40 08          	mov    0x8(%rax),%rax
  402345:	48 89 45 d8          	mov    %rax,-0x28(%rbp)
  402349:	c7 45 ec 00 00 00 00 	movl   $0x0,-0x14(%rbp)
  402350:	c7 45 f4 00 00 00 00 	movl   $0x0,-0xc(%rbp)
  402357:	8b 45 f4             	mov    -0xc(%rbp),%eax
  40235a:	89 45 f0             	mov    %eax,-0x10(%rbp)
  40235d:	eb 01                	jmp    402360 <cpu_main_loop+0x42>
  40235f:	90                   	nop
  402360:	bf 00 80 00 00       	mov    $0x8000,%edi
  402365:	e8 c6 e9 ff ff       	callq  400d30 <malloc@plt>
  40236a:	48 89 45 e0          	mov    %rax,-0x20(%rbp)
  40236e:	48 8b 45 e0          	mov    -0x20(%rbp),%rax
  402372:	be 00 20 00 00       	mov    $0x2000,%esi
  402377:	48 89 c7             	mov    %rax,%rdi
  40237a:	e8 8b fe ff ff       	callq  40220a <code_generator>
  40237f:	bf f4 31 40 00       	mov    $0x4031f4,%edi
  402384:	e8 67 e9 ff ff       	callq  400cf0 <puts@plt>
  402389:	b8 00 32 40 00       	mov    $0x403200,%eax
  40238e:	48 8b 55 d8          	mov    -0x28(%rbp),%rdx
  402392:	48 8b 4d d0          	mov    -0x30(%rbp),%rcx
  402396:	48 89 ce             	mov    %rcx,%rsi
  402399:	48 89 c7             	mov    %rax,%rdi
  40239c:	b8 00 00 00 00       	mov    $0x0,%eax
  4023a1:	e8 1a e9 ff ff       	callq  400cc0 <printf@plt>
  4023a6:	48 8b 45 d0          	mov    -0x30(%rbp),%rax
  4023aa:	48 8b 80 90 00 00 00 	mov    0x90(%rax),%rax
  4023b1:	48 8b 10             	mov    (%rax),%rdx
  4023b4:	48 8b 45 d0          	mov    -0x30(%rbp),%rax
  4023b8:	8b 40 04             	mov    0x4(%rax),%eax
  4023bb:	89 c0                	mov    %eax,%eax
  4023bd:	48 8d 0c 02          	lea    (%rdx,%rax,1),%rcx
  4023c1:	48 8b 45 e0          	mov    -0x20(%rbp),%rax
  4023c5:	ba 00 80 00 00       	mov    $0x8000,%edx
  4023ca:	48 89 c6             	mov    %rax,%rsi
  4023cd:	48 89 cf             	mov    %rcx,%rdi
  4023d0:	e8 1b ea ff ff       	callq  400df0 <memcpy@plt>
  4023d5:	48 8b 45 d8          	mov    -0x28(%rbp),%rax
  4023d9:	48 8b 80 90 00 00 00 	mov    0x90(%rax),%rax
  4023e0:	48 8b 10             	mov    (%rax),%rdx
  4023e3:	48 8b 45 d8          	mov    -0x28(%rbp),%rax
  4023e7:	8b 40 04             	mov    0x4(%rax),%eax
  4023ea:	89 c0                	mov    %eax,%eax
  4023ec:	48 8d 0c 02          	lea    (%rdx,%rax,1),%rcx
  4023f0:	48 8b 45 e0          	mov    -0x20(%rbp),%rax
  4023f4:	ba 00 80 00 00       	mov    $0x8000,%edx
  4023f9:	48 89 c6             	mov    %rax,%rsi
  4023fc:	48 89 cf             	mov    %rcx,%rdi
  4023ff:	e8 ec e9 ff ff       	callq  400df0 <memcpy@plt>
  402404:	bf f4 31 40 00       	mov    $0x4031f4,%edi
  402409:	e8 e2 e8 ff ff       	callq  400cf0 <puts@plt>
  40240e:	c7 45 f8 00 00 00 00 	movl   $0x0,-0x8(%rbp)
  402415:	eb 20                	jmp    402437 <cpu_main_loop+0x119>
  402417:	48 8b 45 d0          	mov    -0x30(%rbp),%rax
  40241b:	48 89 c7             	mov    %rax,%rdi
  40241e:	e8 66 f1 ff ff       	callq  401589 <getfetch>
  402423:	89 c2                	mov    %eax,%edx
  402425:	48 8b 45 d0          	mov    -0x30(%rbp),%rax
  402429:	89 d6                	mov    %edx,%esi
  40242b:	48 89 c7             	mov    %rax,%rdi
  40242e:	e8 a5 f1 ff ff       	callq  4015d8 <exectued>
  402433:	83 45 f8 01          	addl   $0x1,-0x8(%rbp)
  402437:	81 7d f8 ff 3f 00 00 	cmpl   $0x3fff,-0x8(%rbp)
  40243e:	7e d7                	jle    402417 <cpu_main_loop+0xf9>
  402440:	48 8b 45 d0          	mov    -0x30(%rbp),%rax
  402444:	48 8b 80 90 00 00 00 	mov    0x90(%rax),%rax
  40244b:	be 00 00 01 00       	mov    $0x10000,%esi
  402450:	48 89 c7             	mov    %rax,%rdi
  402453:	e8 64 f0 ff ff       	callq  4014bc <read_memory_32>
  402458:	89 45 f4             	mov    %eax,-0xc(%rbp)
  40245b:	8b 45 f4             	mov    -0xc(%rbp),%eax
  40245e:	3b 45 f0             	cmp    -0x10(%rbp),%eax
  402461:	7c 7c                	jl     4024df <cpu_main_loop+0x1c1>
  402463:	8b 45 f4             	mov    -0xc(%rbp),%eax
  402466:	89 45 f0             	mov    %eax,-0x10(%rbp)
  402469:	c7 45 fc 00 00 00 00 	movl   $0x0,-0x4(%rbp)
  402470:	eb 20                	jmp    402492 <cpu_main_loop+0x174>
  402472:	48 8b 45 d8          	mov    -0x28(%rbp),%rax
  402476:	48 89 c7             	mov    %rax,%rdi
  402479:	e8 0b f1 ff ff       	callq  401589 <getfetch>
  40247e:	89 c2                	mov    %eax,%edx
  402480:	48 8b 45 d8          	mov    -0x28(%rbp),%rax
  402484:	89 d6                	mov    %edx,%esi
  402486:	48 89 c7             	mov    %rax,%rdi
  402489:	e8 4a f1 ff ff       	callq  4015d8 <exectued>
  40248e:	83 45 fc 01          	addl   $0x1,-0x4(%rbp)
  402492:	81 7d fc ff 3f 00 00 	cmpl   $0x3fff,-0x4(%rbp)
  402499:	7e d7                	jle    402472 <cpu_main_loop+0x154>
  40249b:	48 8b 45 e0          	mov    -0x20(%rbp),%rax
  40249f:	be 00 20 00 00       	mov    $0x2000,%esi
  4024a4:	48 89 c7             	mov    %rax,%rdi
  4024a7:	e8 a1 fd ff ff       	callq  40224d <code_collector>
  4024ac:	48 8b 45 d8          	mov    -0x28(%rbp),%rax
  4024b0:	8b 40 04             	mov    0x4(%rax),%eax
  4024b3:	8d 90 00 20 00 00    	lea    0x2000(%rax),%edx
  4024b9:	48 8b 45 d0          	mov    -0x30(%rbp),%rax
  4024bd:	48 8b 80 90 00 00 00 	mov    0x90(%rax),%rax
  4024c4:	8b 40 08             	mov    0x8(%rax),%eax
  4024c7:	39 c2                	cmp    %eax,%edx
  4024c9:	0f 86 90 fe ff ff    	jbe    40235f <cpu_main_loop+0x41>
  4024cf:	48 8b 45 d8          	mov    -0x28(%rbp),%rax
  4024d3:	c7 40 04 00 00 00 00 	movl   $0x0,0x4(%rax)
  4024da:	e9 81 fe ff ff       	jmpq   402360 <cpu_main_loop+0x42>
  4024df:	48 8b 55 d8          	mov    -0x28(%rbp),%rdx
  4024e3:	48 8b 45 d0          	mov    -0x30(%rbp),%rax
  4024e7:	48 89 d6             	mov    %rdx,%rsi
  4024ea:	48 89 c7             	mov    %rax,%rdi
  4024ed:	e8 c6 fd ff ff       	callq  4022b8 <clone_cpu>
  4024f2:	e9 69 fe ff ff       	jmpq   402360 <cpu_main_loop+0x42>

00000000004024f7 <init_cpu>:
  4024f7:	55                   	push   %rbp
  4024f8:	48 89 e5             	mov    %rsp,%rbp
  4024fb:	48 83 ec 20          	sub    $0x20,%rsp
  4024ff:	89 7d ec             	mov    %edi,-0x14(%rbp)
  402502:	89 75 e8             	mov    %esi,-0x18(%rbp)
  402505:	48 89 55 e0          	mov    %rdx,-0x20(%rbp)
  402509:	be 98 00 00 00       	mov    $0x98,%esi
  40250e:	bf 01 00 00 00       	mov    $0x1,%edi
  402513:	e8 48 e9 ff ff       	callq  400e60 <calloc@plt>
  402518:	48 89 45 f8          	mov    %rax,-0x8(%rbp)
  40251c:	48 83 7d f8 00       	cmpq   $0x0,-0x8(%rbp)
  402521:	75 14                	jne    402537 <init_cpu+0x40>
  402523:	bf 08 32 40 00       	mov    $0x403208,%edi
  402528:	e8 c3 e7 ff ff       	callq  400cf0 <puts@plt>
  40252d:	bf 00 00 00 00       	mov    $0x0,%edi
  402532:	e8 d9 e7 ff ff       	callq  400d10 <exit@plt>
  402537:	48 8b 45 f8          	mov    -0x8(%rbp),%rax
  40253b:	8b 55 ec             	mov    -0x14(%rbp),%edx
  40253e:	89 10                	mov    %edx,(%rax)
  402540:	48 8b 45 f8          	mov    -0x8(%rbp),%rax
  402544:	8b 55 e8             	mov    -0x18(%rbp),%edx
  402547:	89 50 04             	mov    %edx,0x4(%rax)
  40254a:	48 8b 45 f8          	mov    -0x8(%rbp),%rax
  40254e:	8b 55 e8             	mov    -0x18(%rbp),%edx
  402551:	89 50 08             	mov    %edx,0x8(%rax)
  402554:	48 8b 45 f8          	mov    -0x8(%rbp),%rax
  402558:	48 8b 55 e0          	mov    -0x20(%rbp),%rdx
  40255c:	48 89 90 90 00 00 00 	mov    %rdx,0x90(%rax)
  402563:	48 8b 45 f8          	mov    -0x8(%rbp),%rax
  402567:	c9                   	leaveq 
  402568:	c3                   	retq   
  402569:	90                   	nop
  40256a:	90                   	nop
  40256b:	90                   	nop

000000000040256c <signedjmpimm>:
  40256c:	55                   	push   %rbp
  40256d:	48 89 e5             	mov    %rsp,%rbp
  402570:	89 7d ec             	mov    %edi,-0x14(%rbp)
  402573:	8b 45 ec             	mov    -0x14(%rbp),%eax
  402576:	66 89 45 fe          	mov    %ax,-0x2(%rbp)
  40257a:	0f b7 45 fe          	movzwl -0x2(%rbp),%eax
  40257e:	25 00 00 00 02       	and    $0x2000000,%eax
  402583:	85 c0                	test   %eax,%eax
  402585:	74 0b                	je     402592 <signedjmpimm+0x26>
  402587:	0f b7 45 fe          	movzwl -0x2(%rbp),%eax
  40258b:	0d 00 00 00 ff       	or     $0xff000000,%eax
  402590:	eb 04                	jmp    402596 <signedjmpimm+0x2a>
  402592:	0f b7 45 fe          	movzwl -0x2(%rbp),%eax
  402596:	c9                   	leaveq 
  402597:	c3                   	retq   

0000000000402598 <get_opcode_desc>:
  402598:	55                   	push   %rbp
  402599:	48 89 e5             	mov    %rsp,%rbp
  40259c:	89 7d fc             	mov    %edi,-0x4(%rbp)
  40259f:	8b 45 fc             	mov    -0x4(%rbp),%eax
  4025a2:	48 98                	cltq   
  4025a4:	48 8b 04 c5 40 43 60 	mov    0x604340(,%rax,8),%rax
  4025ab:	00 
  4025ac:	c9                   	leaveq 
  4025ad:	c3                   	retq   

00000000004025ae <get_reg_desc>:
  4025ae:	55                   	push   %rbp
  4025af:	48 89 e5             	mov    %rsp,%rbp
  4025b2:	89 7d fc             	mov    %edi,-0x4(%rbp)
  4025b5:	8b 45 fc             	mov    -0x4(%rbp),%eax
  4025b8:	48 98                	cltq   
  4025ba:	48 8b 04 c5 40 44 60 	mov    0x604440(,%rax,8),%rax
  4025c1:	00 
  4025c2:	c9                   	leaveq 
  4025c3:	c3                   	retq   

00000000004025c4 <get_deassembly>:
  4025c4:	55                   	push   %rbp
  4025c5:	48 89 e5             	mov    %rsp,%rbp
  4025c8:	41 55                	push   %r13
  4025ca:	41 54                	push   %r12
  4025cc:	53                   	push   %rbx
  4025cd:	48 83 ec 28          	sub    $0x28,%rsp
  4025d1:	89 7d cc             	mov    %edi,-0x34(%rbp)
  4025d4:	8b 45 cc             	mov    -0x34(%rbp),%eax
  4025d7:	c1 e8 1a             	shr    $0x1a,%eax
  4025da:	83 f8 1f             	cmp    $0x1f,%eax
  4025dd:	0f 87 83 01 00 00    	ja     402766 <get_deassembly+0x1a2>
  4025e3:	89 c0                	mov    %eax,%eax
  4025e5:	48 8b 04 c5 78 33 40 	mov    0x403378(,%rax,8),%rax
  4025ec:	00 
  4025ed:	ff e0                	jmpq   *%rax
  4025ef:	8b 45 cc             	mov    -0x34(%rbp),%eax
  4025f2:	c1 e8 0b             	shr    $0xb,%eax
  4025f5:	83 e0 1f             	and    $0x1f,%eax
  4025f8:	89 c7                	mov    %eax,%edi
  4025fa:	e8 af ff ff ff       	callq  4025ae <get_reg_desc>
  4025ff:	49 89 c5             	mov    %rax,%r13
  402602:	8b 45 cc             	mov    -0x34(%rbp),%eax
  402605:	c1 e8 10             	shr    $0x10,%eax
  402608:	83 e0 1f             	and    $0x1f,%eax
  40260b:	89 c7                	mov    %eax,%edi
  40260d:	e8 9c ff ff ff       	callq  4025ae <get_reg_desc>
  402612:	49 89 c4             	mov    %rax,%r12
  402615:	8b 45 cc             	mov    -0x34(%rbp),%eax
  402618:	c1 e8 15             	shr    $0x15,%eax
  40261b:	83 e0 1f             	and    $0x1f,%eax
  40261e:	89 c7                	mov    %eax,%edi
  402620:	e8 89 ff ff ff       	callq  4025ae <get_reg_desc>
  402625:	48 89 c3             	mov    %rax,%rbx
  402628:	8b 45 cc             	mov    -0x34(%rbp),%eax
  40262b:	c1 e8 1a             	shr    $0x1a,%eax
  40262e:	89 c7                	mov    %eax,%edi
  402630:	e8 63 ff ff ff       	callq  402598 <get_opcode_desc>
  402635:	48 89 c2             	mov    %rax,%rdx
  402638:	b8 29 33 40 00       	mov    $0x403329,%eax
  40263d:	4d 89 e9             	mov    %r13,%r9
  402640:	4d 89 e0             	mov    %r12,%r8
  402643:	48 89 d9             	mov    %rbx,%rcx
  402646:	48 89 c6             	mov    %rax,%rsi
  402649:	bf 80 27 65 00       	mov    $0x652780,%edi
  40264e:	b8 00 00 00 00       	mov    $0x0,%eax
  402653:	e8 38 e7 ff ff       	callq  400d90 <sprintf@plt>
  402658:	b8 80 27 65 00       	mov    $0x652780,%eax
  40265d:	e9 09 01 00 00       	jmpq   40276b <get_deassembly+0x1a7>
  402662:	8b 45 cc             	mov    -0x34(%rbp),%eax
  402665:	66 89 45 da          	mov    %ax,-0x26(%rbp)
  402669:	44 0f bf 6d da       	movswl -0x26(%rbp),%r13d
  40266e:	8b 45 cc             	mov    -0x34(%rbp),%eax
  402671:	c1 e8 10             	shr    $0x10,%eax
  402674:	83 e0 1f             	and    $0x1f,%eax
  402677:	89 c7                	mov    %eax,%edi
  402679:	e8 30 ff ff ff       	callq  4025ae <get_reg_desc>
  40267e:	49 89 c4             	mov    %rax,%r12
  402681:	8b 45 cc             	mov    -0x34(%rbp),%eax
  402684:	c1 e8 15             	shr    $0x15,%eax
  402687:	83 e0 1f             	and    $0x1f,%eax
  40268a:	89 c7                	mov    %eax,%edi
  40268c:	e8 1d ff ff ff       	callq  4025ae <get_reg_desc>
  402691:	48 89 c3             	mov    %rax,%rbx
  402694:	8b 45 cc             	mov    -0x34(%rbp),%eax
  402697:	c1 e8 1a             	shr    $0x1a,%eax
  40269a:	89 c7                	mov    %eax,%edi
  40269c:	e8 f7 fe ff ff       	callq  402598 <get_opcode_desc>
  4026a1:	48 89 c2             	mov    %rax,%rdx
  4026a4:	b8 39 33 40 00       	mov    $0x403339,%eax
  4026a9:	45 89 e9             	mov    %r13d,%r9d
  4026ac:	4d 89 e0             	mov    %r12,%r8
  4026af:	48 89 d9             	mov    %rbx,%rcx
  4026b2:	48 89 c6             	mov    %rax,%rsi
  4026b5:	bf 80 27 65 00       	mov    $0x652780,%edi
  4026ba:	b8 00 00 00 00       	mov    $0x0,%eax
  4026bf:	e8 cc e6 ff ff       	callq  400d90 <sprintf@plt>
  4026c4:	b8 80 27 65 00       	mov    $0x652780,%eax
  4026c9:	e9 9d 00 00 00       	jmpq   40276b <get_deassembly+0x1a7>
  4026ce:	8b 45 cc             	mov    -0x34(%rbp),%eax
  4026d1:	89 c7                	mov    %eax,%edi
  4026d3:	e8 94 fe ff ff       	callq  40256c <signedjmpimm>
  4026d8:	89 45 dc             	mov    %eax,-0x24(%rbp)
  4026db:	8b 45 cc             	mov    -0x34(%rbp),%eax
  4026de:	c1 e8 1a             	shr    $0x1a,%eax
  4026e1:	89 c7                	mov    %eax,%edi
  4026e3:	e8 b0 fe ff ff       	callq  402598 <get_opcode_desc>
  4026e8:	48 89 c2             	mov    %rax,%rdx
  4026eb:	b8 49 33 40 00       	mov    $0x403349,%eax
  4026f0:	8b 4d dc             	mov    -0x24(%rbp),%ecx
  4026f3:	48 89 c6             	mov    %rax,%rsi
  4026f6:	bf 80 27 65 00       	mov    $0x652780,%edi
  4026fb:	b8 00 00 00 00       	mov    $0x0,%eax
  402700:	e8 8b e6 ff ff       	callq  400d90 <sprintf@plt>
  402705:	b8 80 27 65 00       	mov    $0x652780,%eax
  40270a:	eb 5f                	jmp    40276b <get_deassembly+0x1a7>
  40270c:	8b 45 cc             	mov    -0x34(%rbp),%eax
  40270f:	c1 e8 10             	shr    $0x10,%eax
  402712:	83 e0 1f             	and    $0x1f,%eax
  402715:	89 c7                	mov    %eax,%edi
  402717:	e8 92 fe ff ff       	callq  4025ae <get_reg_desc>
  40271c:	49 89 c4             	mov    %rax,%r12
  40271f:	8b 45 cc             	mov    -0x34(%rbp),%eax
  402722:	c1 e8 15             	shr    $0x15,%eax
  402725:	83 e0 1f             	and    $0x1f,%eax
  402728:	89 c7                	mov    %eax,%edi
  40272a:	e8 7f fe ff ff       	callq  4025ae <get_reg_desc>
  40272f:	48 89 c3             	mov    %rax,%rbx
  402732:	8b 45 cc             	mov    -0x34(%rbp),%eax
  402735:	c1 e8 1a             	shr    $0x1a,%eax
  402738:	89 c7                	mov    %eax,%edi
  40273a:	e8 59 fe ff ff       	callq  402598 <get_opcode_desc>
  40273f:	48 89 c2             	mov    %rax,%rdx
  402742:	b8 51 33 40 00       	mov    $0x403351,%eax
  402747:	4d 89 e0             	mov    %r12,%r8
  40274a:	48 89 d9             	mov    %rbx,%rcx
  40274d:	48 89 c6             	mov    %rax,%rsi
  402750:	bf 80 27 65 00       	mov    $0x652780,%edi
  402755:	b8 00 00 00 00       	mov    $0x0,%eax
  40275a:	e8 31 e6 ff ff       	callq  400d90 <sprintf@plt>
  40275f:	b8 80 27 65 00       	mov    $0x652780,%eax
  402764:	eb 05                	jmp    40276b <get_deassembly+0x1a7>
  402766:	b8 5d 33 40 00       	mov    $0x40335d,%eax
  40276b:	48 83 c4 28          	add    $0x28,%rsp
  40276f:	5b                   	pop    %rbx
  402770:	41 5c                	pop    %r12
  402772:	41 5d                	pop    %r13
  402774:	c9                   	leaveq 
  402775:	c3                   	retq   

0000000000402776 <init_screen>:
  402776:	55                   	push   %rbp
  402777:	48 89 e5             	mov    %rsp,%rbp
  40277a:	41 54                	push   %r12
  40277c:	53                   	push   %rbx
  40277d:	48 83 ec 40          	sub    $0x40,%rsp
  402781:	48 89 7d d8          	mov    %rdi,-0x28(%rbp)
  402785:	48 89 75 d0          	mov    %rsi,-0x30(%rbp)
  402789:	e8 e2 e5 ff ff       	callq  400d70 <initscr@plt>
  40278e:	bf 78 00 00 00       	mov    $0x78,%edi
  402793:	e8 98 e5 ff ff       	callq  400d30 <malloc@plt>
  402798:	48 89 45 e8          	mov    %rax,-0x18(%rbp)
  40279c:	8b 05 9e 1d 20 00    	mov    0x201d9e(%rip),%eax        # 604540 <__bss_start>
  4027a2:	8d 50 fd             	lea    -0x3(%rax),%edx
  4027a5:	48 8b 45 e8          	mov    -0x18(%rbp),%rax
  4027a9:	89 10                	mov    %edx,(%rax)
  4027ab:	8b 05 93 1d 20 00    	mov    0x201d93(%rip),%eax        # 604544 <COLS>
  4027b1:	89 c2                	mov    %eax,%edx
  4027b3:	c1 ea 1f             	shr    $0x1f,%edx
  4027b6:	8d 04 02             	lea    (%rdx,%rax,1),%eax
  4027b9:	d1 f8                	sar    %eax
  4027bb:	89 c2                	mov    %eax,%edx
  4027bd:	48 8b 45 e8          	mov    -0x18(%rbp),%rax
  4027c1:	89 50 04             	mov    %edx,0x4(%rax)
  4027c4:	48 8b 45 e8          	mov    -0x18(%rbp),%rax
  4027c8:	c7 40 0c 00 00 00 00 	movl   $0x0,0xc(%rax)
  4027cf:	48 8b 45 e8          	mov    -0x18(%rbp),%rax
  4027d3:	c7 40 08 00 00 00 00 	movl   $0x0,0x8(%rax)
  4027da:	48 8b 45 e8          	mov    -0x18(%rbp),%rax
  4027de:	8b 48 08             	mov    0x8(%rax),%ecx
  4027e1:	48 8b 45 e8          	mov    -0x18(%rbp),%rax
  4027e5:	8b 50 0c             	mov    0xc(%rax),%edx
  4027e8:	48 8b 45 e8          	mov    -0x18(%rbp),%rax
  4027ec:	8b 58 04             	mov    0x4(%rax),%ebx
  4027ef:	48 8b 45 e8          	mov    -0x18(%rbp),%rax
  4027f3:	8b 00                	mov    (%rax),%eax
  4027f5:	89 de                	mov    %ebx,%esi
  4027f7:	89 c7                	mov    %eax,%edi
  4027f9:	e8 e2 e4 ff ff       	callq  400ce0 <newwin@plt>
  4027fe:	48 8b 55 e8          	mov    -0x18(%rbp),%rdx
  402802:	48 89 42 10          	mov    %rax,0x10(%rdx)
  402806:	48 8b 45 e8          	mov    -0x18(%rbp),%rax
  40280a:	48 8b 40 10          	mov    0x10(%rax),%rax
  40280e:	be 01 00 00 00       	mov    $0x1,%esi
  402813:	48 89 c7             	mov    %rax,%rdi
  402816:	e8 95 e4 ff ff       	callq  400cb0 <scrollok@plt>
  40281b:	48 8b 45 e8          	mov    -0x18(%rbp),%rax
  40281f:	48 83 c0 28          	add    $0x28,%rax
  402823:	8b 15 17 1d 20 00    	mov    0x201d17(%rip),%edx        # 604540 <__bss_start>
  402829:	83 ea 03             	sub    $0x3,%edx
  40282c:	89 10                	mov    %edx,(%rax)
  40282e:	48 8b 45 e8          	mov    -0x18(%rbp),%rax
  402832:	48 8d 50 28          	lea    0x28(%rax),%rdx
  402836:	8b 05 08 1d 20 00    	mov    0x201d08(%rip),%eax        # 604544 <COLS>
  40283c:	89 c1                	mov    %eax,%ecx
  40283e:	c1 e9 1f             	shr    $0x1f,%ecx
  402841:	8d 04 01             	lea    (%rcx,%rax,1),%eax
  402844:	d1 f8                	sar    %eax
  402846:	89 42 04             	mov    %eax,0x4(%rdx)
  402849:	48 8b 45 e8          	mov    -0x18(%rbp),%rax
  40284d:	48 83 c0 28          	add    $0x28,%rax
  402851:	c7 40 0c 00 00 00 00 	movl   $0x0,0xc(%rax)
  402858:	48 8b 45 e8          	mov    -0x18(%rbp),%rax
  40285c:	48 8d 50 28          	lea    0x28(%rax),%rdx
  402860:	8b 05 de 1c 20 00    	mov    0x201cde(%rip),%eax        # 604544 <COLS>
  402866:	89 c1                	mov    %eax,%ecx
  402868:	c1 e9 1f             	shr    $0x1f,%ecx
  40286b:	8d 04 01             	lea    (%rcx,%rax,1),%eax
  40286e:	d1 f8                	sar    %eax
  402870:	89 42 08             	mov    %eax,0x8(%rdx)
  402873:	48 8b 45 e8          	mov    -0x18(%rbp),%rax
  402877:	4c 8d 60 28          	lea    0x28(%rax),%r12
  40287b:	48 8b 45 e8          	mov    -0x18(%rbp),%rax
  40287f:	48 83 c0 28          	add    $0x28,%rax
  402883:	8b 48 08             	mov    0x8(%rax),%ecx
  402886:	48 8b 45 e8          	mov    -0x18(%rbp),%rax
  40288a:	48 83 c0 28          	add    $0x28,%rax
  40288e:	8b 50 0c             	mov    0xc(%rax),%edx
  402891:	48 8b 45 e8          	mov    -0x18(%rbp),%rax
  402895:	48 83 c0 28          	add    $0x28,%rax
  402899:	8b 58 04             	mov    0x4(%rax),%ebx
  40289c:	48 8b 45 e8          	mov    -0x18(%rbp),%rax
  4028a0:	48 83 c0 28          	add    $0x28,%rax
  4028a4:	8b 00                	mov    (%rax),%eax
  4028a6:	89 de                	mov    %ebx,%esi
  4028a8:	89 c7                	mov    %eax,%edi
  4028aa:	e8 31 e4 ff ff       	callq  400ce0 <newwin@plt>
  4028af:	49 89 44 24 10       	mov    %rax,0x10(%r12)
  4028b4:	48 8b 45 e8          	mov    -0x18(%rbp),%rax
  4028b8:	48 83 c0 28          	add    $0x28,%rax
  4028bc:	48 8b 40 10          	mov    0x10(%rax),%rax
  4028c0:	be 01 00 00 00       	mov    $0x1,%esi
  4028c5:	48 89 c7             	mov    %rax,%rdi
  4028c8:	e8 e3 e3 ff ff       	callq  400cb0 <scrollok@plt>
  4028cd:	48 8b 45 e8          	mov    -0x18(%rbp),%rax
  4028d1:	48 83 c0 50          	add    $0x50,%rax
  4028d5:	c7 00 03 00 00 00    	movl   $0x3,(%rax)
  4028db:	48 8b 45 e8          	mov    -0x18(%rbp),%rax
  4028df:	48 8d 50 50          	lea    0x50(%rax),%rdx
  4028e3:	8b 05 5b 1c 20 00    	mov    0x201c5b(%rip),%eax        # 604544 <COLS>
  4028e9:	89 42 04             	mov    %eax,0x4(%rdx)
  4028ec:	48 8b 45 e8          	mov    -0x18(%rbp),%rax
  4028f0:	48 83 c0 50          	add    $0x50,%rax
  4028f4:	8b 15 46 1c 20 00    	mov    0x201c46(%rip),%edx        # 604540 <__bss_start>
  4028fa:	83 ea 03             	sub    $0x3,%edx
  4028fd:	89 50 0c             	mov    %edx,0xc(%rax)
  402900:	48 8b 45 e8          	mov    -0x18(%rbp),%rax
  402904:	48 83 c0 50          	add    $0x50,%rax
  402908:	c7 40 08 00 00 00 00 	movl   $0x0,0x8(%rax)
  40290f:	48 8b 45 e8          	mov    -0x18(%rbp),%rax
  402913:	4c 8d 60 50          	lea    0x50(%rax),%r12
  402917:	48 8b 45 e8          	mov    -0x18(%rbp),%rax
  40291b:	48 83 c0 50          	add    $0x50,%rax
  40291f:	8b 48 08             	mov    0x8(%rax),%ecx
  402922:	48 8b 45 e8          	mov    -0x18(%rbp),%rax
  402926:	48 83 c0 50          	add    $0x50,%rax
  40292a:	8b 50 0c             	mov    0xc(%rax),%edx
  40292d:	48 8b 45 e8          	mov    -0x18(%rbp),%rax
  402931:	48 83 c0 50          	add    $0x50,%rax
  402935:	8b 58 04             	mov    0x4(%rax),%ebx
  402938:	48 8b 45 e8          	mov    -0x18(%rbp),%rax
  40293c:	48 83 c0 50          	add    $0x50,%rax
  402940:	8b 00                	mov    (%rax),%eax
  402942:	89 de                	mov    %ebx,%esi
  402944:	89 c7                	mov    %eax,%edi
  402946:	e8 95 e3 ff ff       	callq  400ce0 <newwin@plt>
  40294b:	49 89 44 24 10       	mov    %rax,0x10(%r12)
  402950:	48 8b 45 e8          	mov    -0x18(%rbp),%rax
  402954:	48 83 c0 50          	add    $0x50,%rax
  402958:	48 8b 40 10          	mov    0x10(%rax),%rax
  40295c:	be 01 00 00 00       	mov    $0x1,%esi
  402961:	48 89 c7             	mov    %rax,%rdi
  402964:	e8 47 e3 ff ff       	callq  400cb0 <scrollok@plt>
  402969:	48 8b 45 e8          	mov    -0x18(%rbp),%rax
  40296d:	48 8b 55 d8          	mov    -0x28(%rbp),%rdx
  402971:	48 89 50 18          	mov    %rdx,0x18(%rax)
  402975:	48 8b 45 e8          	mov    -0x18(%rbp),%rax
  402979:	48 8d 50 28          	lea    0x28(%rax),%rdx
  40297d:	48 8b 45 d8          	mov    -0x28(%rbp),%rax
  402981:	48 89 42 18          	mov    %rax,0x18(%rdx)
  402985:	48 8b 45 e8          	mov    -0x18(%rbp),%rax
  402989:	48 8d 50 50          	lea    0x50(%rax),%rdx
  40298d:	48 8b 45 d8          	mov    -0x28(%rbp),%rax
  402991:	48 89 42 18          	mov    %rax,0x18(%rdx)
  402995:	48 8b 45 e8          	mov    -0x18(%rbp),%rax
  402999:	48 8b 55 d0          	mov    -0x30(%rbp),%rdx
  40299d:	48 89 50 20          	mov    %rdx,0x20(%rax)
  4029a1:	48 8b 45 e8          	mov    -0x18(%rbp),%rax
  4029a5:	48 8d 50 28          	lea    0x28(%rax),%rdx
  4029a9:	48 8b 45 d0          	mov    -0x30(%rbp),%rax
  4029ad:	48 89 42 20          	mov    %rax,0x20(%rdx)
  4029b1:	48 8b 45 e8          	mov    -0x18(%rbp),%rax
  4029b5:	48 8d 50 50          	lea    0x50(%rax),%rdx
  4029b9:	48 8b 45 d0          	mov    -0x30(%rbp),%rax
  4029bd:	48 89 42 20          	mov    %rax,0x20(%rdx)
  4029c1:	48 8b 45 e8          	mov    -0x18(%rbp),%rax
  4029c5:	48 8b 40 10          	mov    0x10(%rax),%rax
  4029c9:	48 c7 44 24 10 00 00 	movq   $0x0,0x10(%rsp)
  4029d0:	00 00 
  4029d2:	48 c7 44 24 08 00 00 	movq   $0x0,0x8(%rsp)
  4029d9:	00 00 
  4029db:	48 c7 04 24 00 00 00 	movq   $0x0,(%rsp)
  4029e2:	00 
  4029e3:	41 b9 00 00 00 00    	mov    $0x0,%r9d
  4029e9:	41 b8 00 00 00 00    	mov    $0x0,%r8d
  4029ef:	b9 00 00 00 00       	mov    $0x0,%ecx
  4029f4:	ba 00 00 00 00       	mov    $0x0,%edx
  4029f9:	be 00 00 00 00       	mov    $0x0,%esi
  4029fe:	48 89 c7             	mov    %rax,%rdi
  402a01:	e8 4a e4 ff ff       	callq  400e50 <wborder@plt>
  402a06:	48 8b 45 e8          	mov    -0x18(%rbp),%rax
  402a0a:	48 83 c0 28          	add    $0x28,%rax
  402a0e:	48 8b 40 10          	mov    0x10(%rax),%rax
  402a12:	48 c7 44 24 10 00 00 	movq   $0x0,0x10(%rsp)
  402a19:	00 00 
  402a1b:	48 c7 44 24 08 00 00 	movq   $0x0,0x8(%rsp)
  402a22:	00 00 
  402a24:	48 c7 04 24 00 00 00 	movq   $0x0,(%rsp)
  402a2b:	00 
  402a2c:	41 b9 00 00 00 00    	mov    $0x0,%r9d
  402a32:	41 b8 00 00 00 00    	mov    $0x0,%r8d
  402a38:	b9 00 00 00 00       	mov    $0x0,%ecx
  402a3d:	ba 00 00 00 00       	mov    $0x0,%edx
  402a42:	be 00 00 00 00       	mov    $0x0,%esi
  402a47:	48 89 c7             	mov    %rax,%rdi
  402a4a:	e8 01 e4 ff ff       	callq  400e50 <wborder@plt>
  402a4f:	48 8b 45 e8          	mov    -0x18(%rbp),%rax
  402a53:	48 83 c0 50          	add    $0x50,%rax
  402a57:	48 8b 40 10          	mov    0x10(%rax),%rax
  402a5b:	48 c7 44 24 10 00 00 	movq   $0x0,0x10(%rsp)
  402a62:	00 00 
  402a64:	48 c7 44 24 08 00 00 	movq   $0x0,0x8(%rsp)
  402a6b:	00 00 
  402a6d:	48 c7 04 24 00 00 00 	movq   $0x0,(%rsp)
  402a74:	00 
  402a75:	41 b9 00 00 00 00    	mov    $0x0,%r9d
  402a7b:	41 b8 00 00 00 00    	mov    $0x0,%r8d
  402a81:	b9 00 00 00 00       	mov    $0x0,%ecx
  402a86:	ba 00 00 00 00       	mov    $0x0,%edx
  402a8b:	be 00 00 00 00       	mov    $0x0,%esi
  402a90:	48 89 c7             	mov    %rax,%rdi
  402a93:	e8 b8 e3 ff ff       	callq  400e50 <wborder@plt>
  402a98:	48 8b 45 e8          	mov    -0x18(%rbp),%rax
  402a9c:	48 83 c4 40          	add    $0x40,%rsp
  402aa0:	5b                   	pop    %rbx
  402aa1:	41 5c                	pop    %r12
  402aa3:	c9                   	leaveq 
  402aa4:	c3                   	retq   

0000000000402aa5 <mem_console_main_loop>:
  402aa5:	55                   	push   %rbp
  402aa6:	48 89 e5             	mov    %rsp,%rbp
  402aa9:	53                   	push   %rbx
  402aaa:	48 83 ec 48          	sub    $0x48,%rsp
  402aae:	48 89 7d b8          	mov    %rdi,-0x48(%rbp)
  402ab2:	48 8b 45 b8          	mov    -0x48(%rbp),%rax
  402ab6:	48 89 45 c8          	mov    %rax,-0x38(%rbp)
  402aba:	48 8b 45 c8          	mov    -0x38(%rbp),%rax
  402abe:	48 8b 40 18          	mov    0x18(%rax),%rax
  402ac2:	48 89 45 d0          	mov    %rax,-0x30(%rbp)
  402ac6:	48 8b 45 c8          	mov    -0x38(%rbp),%rax
  402aca:	8b 00                	mov    (%rax),%eax
  402acc:	89 45 d8             	mov    %eax,-0x28(%rbp)
  402acf:	c7 45 dc 00 00 00 00 	movl   $0x0,-0x24(%rbp)
  402ad6:	c7 45 e4 00 00 00 00 	movl   $0x0,-0x1c(%rbp)
  402add:	8b 45 e4             	mov    -0x1c(%rbp),%eax
  402ae0:	89 45 e0             	mov    %eax,-0x20(%rbp)
  402ae3:	48 8b 45 d0          	mov    -0x30(%rbp),%rax
  402ae7:	8b 40 04             	mov    0x4(%rax),%eax
  402aea:	3b 45 dc             	cmp    -0x24(%rbp),%eax
  402aed:	75 03                	jne    402af2 <mem_console_main_loop+0x4d>
  402aef:	90                   	nop
  402af0:	eb f1                	jmp    402ae3 <mem_console_main_loop+0x3e>
  402af2:	48 8b 45 c8          	mov    -0x38(%rbp),%rax
  402af6:	48 8b 40 20          	mov    0x20(%rax),%rax
  402afa:	48 89 c7             	mov    %rax,%rdi
  402afd:	e8 6e e3 ff ff       	callq  400e70 <pthread_mutex_lock@plt>
  402b02:	48 8b 45 c8          	mov    -0x38(%rbp),%rax
  402b06:	48 8b 40 10          	mov    0x10(%rax),%rax
  402b0a:	48 89 c7             	mov    %rax,%rdi
  402b0d:	e8 7e e3 ff ff       	callq  400e90 <wclear@plt>
  402b12:	48 8b 45 d0          	mov    -0x30(%rbp),%rax
  402b16:	8b 40 04             	mov    0x4(%rax),%eax
  402b19:	3b 45 e4             	cmp    -0x1c(%rbp),%eax
  402b1c:	77 0c                	ja     402b2a <mem_console_main_loop+0x85>
  402b1e:	48 8b 45 d0          	mov    -0x30(%rbp),%rax
  402b22:	8b 40 04             	mov    0x4(%rax),%eax
  402b25:	3b 45 e0             	cmp    -0x20(%rbp),%eax
  402b28:	73 3c                	jae    402b66 <mem_console_main_loop+0xc1>
  402b2a:	48 8b 45 d0          	mov    -0x30(%rbp),%rax
  402b2e:	8b 50 04             	mov    0x4(%rax),%edx
  402b31:	8b 45 d8             	mov    -0x28(%rbp),%eax
  402b34:	89 c1                	mov    %eax,%ecx
  402b36:	c1 e9 1f             	shr    $0x1f,%ecx
  402b39:	8d 04 01             	lea    (%rcx,%rax,1),%eax
  402b3c:	d1 f8                	sar    %eax
  402b3e:	c1 e0 02             	shl    $0x2,%eax
  402b41:	f7 d8                	neg    %eax
  402b43:	8d 04 02             	lea    (%rdx,%rax,1),%eax
  402b46:	89 45 e0             	mov    %eax,-0x20(%rbp)
  402b49:	48 8b 45 d0          	mov    -0x30(%rbp),%rax
  402b4d:	8b 50 04             	mov    0x4(%rax),%edx
  402b50:	8b 45 d8             	mov    -0x28(%rbp),%eax
  402b53:	89 c1                	mov    %eax,%ecx
  402b55:	c1 e9 1f             	shr    $0x1f,%ecx
  402b58:	8d 04 01             	lea    (%rcx,%rax,1),%eax
  402b5b:	d1 f8                	sar    %eax
  402b5d:	c1 e0 02             	shl    $0x2,%eax
  402b60:	8d 04 02             	lea    (%rdx,%rax,1),%eax
  402b63:	89 45 e4             	mov    %eax,-0x1c(%rbp)
  402b66:	8b 45 e0             	mov    -0x20(%rbp),%eax
  402b69:	89 45 ec             	mov    %eax,-0x14(%rbp)
  402b6c:	e9 8d 00 00 00       	jmpq   402bfe <mem_console_main_loop+0x159>
  402b71:	48 8b 45 d0          	mov    -0x30(%rbp),%rax
  402b75:	48 8b 80 90 00 00 00 	mov    0x90(%rax),%rax
  402b7c:	8b 55 ec             	mov    -0x14(%rbp),%edx
  402b7f:	89 d6                	mov    %edx,%esi
  402b81:	48 89 c7             	mov    %rax,%rdi
  402b84:	e8 33 e9 ff ff       	callq  4014bc <read_memory_32>
  402b89:	89 45 e8             	mov    %eax,-0x18(%rbp)
  402b8c:	48 8b 45 d0          	mov    -0x30(%rbp),%rax
  402b90:	8b 40 04             	mov    0x4(%rax),%eax
  402b93:	3b 45 ec             	cmp    -0x14(%rbp),%eax
  402b96:	75 32                	jne    402bca <mem_console_main_loop+0x125>
  402b98:	8b 45 e8             	mov    -0x18(%rbp),%eax
  402b9b:	89 c7                	mov    %eax,%edi
  402b9d:	e8 22 fa ff ff       	callq  4025c4 <get_deassembly>
  402ba2:	48 89 c3             	mov    %rax,%rbx
  402ba5:	48 8b 45 c8          	mov    -0x38(%rbp),%rax
  402ba9:	48 8b 40 10          	mov    0x10(%rax),%rax
  402bad:	8b 4d e8             	mov    -0x18(%rbp),%ecx
  402bb0:	8b 55 ec             	mov    -0x14(%rbp),%edx
  402bb3:	49 89 d8             	mov    %rbx,%r8
  402bb6:	be 78 34 40 00       	mov    $0x403478,%esi
  402bbb:	48 89 c7             	mov    %rax,%rdi
  402bbe:	b8 00 00 00 00       	mov    $0x0,%eax
  402bc3:	e8 48 e2 ff ff       	callq  400e10 <wprintw@plt>
  402bc8:	eb 30                	jmp    402bfa <mem_console_main_loop+0x155>
  402bca:	8b 45 e8             	mov    -0x18(%rbp),%eax
  402bcd:	89 c7                	mov    %eax,%edi
  402bcf:	e8 f0 f9 ff ff       	callq  4025c4 <get_deassembly>
  402bd4:	48 89 c3             	mov    %rax,%rbx
  402bd7:	48 8b 45 c8          	mov    -0x38(%rbp),%rax
  402bdb:	48 8b 40 10          	mov    0x10(%rax),%rax
  402bdf:	8b 4d e8             	mov    -0x18(%rbp),%ecx
  402be2:	8b 55 ec             	mov    -0x14(%rbp),%edx
  402be5:	49 89 d8             	mov    %rbx,%r8
  402be8:	be 8c 34 40 00       	mov    $0x40348c,%esi
  402bed:	48 89 c7             	mov    %rax,%rdi
  402bf0:	b8 00 00 00 00       	mov    $0x0,%eax
  402bf5:	e8 16 e2 ff ff       	callq  400e10 <wprintw@plt>
  402bfa:	83 45 ec 04          	addl   $0x4,-0x14(%rbp)
  402bfe:	8b 45 ec             	mov    -0x14(%rbp),%eax
  402c01:	3b 45 e4             	cmp    -0x1c(%rbp),%eax
  402c04:	0f 82 67 ff ff ff    	jb     402b71 <mem_console_main_loop+0xcc>
  402c0a:	48 8b 45 c8          	mov    -0x38(%rbp),%rax
  402c0e:	48 8b 40 10          	mov    0x10(%rax),%rax
  402c12:	48 89 c7             	mov    %rax,%rdi
  402c15:	e8 86 e1 ff ff       	callq  400da0 <wrefresh@plt>
  402c1a:	48 8b 45 d0          	mov    -0x30(%rbp),%rax
  402c1e:	8b 40 04             	mov    0x4(%rax),%eax
  402c21:	89 45 dc             	mov    %eax,-0x24(%rbp)
  402c24:	48 8b 45 c8          	mov    -0x38(%rbp),%rax
  402c28:	48 8b 40 20          	mov    0x20(%rax),%rax
  402c2c:	48 89 c7             	mov    %rax,%rdi
  402c2f:	e8 7c e2 ff ff       	callq  400eb0 <pthread_mutex_unlock@plt>
  402c34:	e9 aa fe ff ff       	jmpq   402ae3 <mem_console_main_loop+0x3e>

0000000000402c39 <reg_console_main_loop>:
  402c39:	55                   	push   %rbp
  402c3a:	48 89 e5             	mov    %rsp,%rbp
  402c3d:	53                   	push   %rbx
  402c3e:	48 83 ec 38          	sub    $0x38,%rsp
  402c42:	48 89 7d c8          	mov    %rdi,-0x38(%rbp)
  402c46:	48 8b 45 c8          	mov    -0x38(%rbp),%rax
  402c4a:	48 89 45 d8          	mov    %rax,-0x28(%rbp)
  402c4e:	48 8b 45 d8          	mov    -0x28(%rbp),%rax
  402c52:	48 8b 40 18          	mov    0x18(%rax),%rax
  402c56:	48 89 45 e0          	mov    %rax,-0x20(%rbp)
  402c5a:	c7 45 e8 00 00 00 00 	movl   $0x0,-0x18(%rbp)
  402c61:	48 8b 45 e0          	mov    -0x20(%rbp),%rax
  402c65:	8b 40 04             	mov    0x4(%rax),%eax
  402c68:	3b 45 e8             	cmp    -0x18(%rbp),%eax
  402c6b:	75 03                	jne    402c70 <reg_console_main_loop+0x37>
  402c6d:	90                   	nop
  402c6e:	eb f1                	jmp    402c61 <reg_console_main_loop+0x28>
  402c70:	48 8b 45 d8          	mov    -0x28(%rbp),%rax
  402c74:	48 8b 40 20          	mov    0x20(%rax),%rax
  402c78:	48 89 c7             	mov    %rax,%rdi
  402c7b:	e8 f0 e1 ff ff       	callq  400e70 <pthread_mutex_lock@plt>
  402c80:	48 8b 45 d8          	mov    -0x28(%rbp),%rax
  402c84:	48 8b 40 10          	mov    0x10(%rax),%rax
  402c88:	48 89 c7             	mov    %rax,%rdi
  402c8b:	e8 00 e2 ff ff       	callq  400e90 <wclear@plt>
  402c90:	48 8b 45 e0          	mov    -0x20(%rbp),%rax
  402c94:	8b 10                	mov    (%rax),%edx
  402c96:	48 8b 45 d8          	mov    -0x28(%rbp),%rax
  402c9a:	48 8b 40 10          	mov    0x10(%rax),%rax
  402c9e:	be a0 34 40 00       	mov    $0x4034a0,%esi
  402ca3:	48 89 c7             	mov    %rax,%rdi
  402ca6:	b8 00 00 00 00       	mov    $0x0,%eax
  402cab:	e8 60 e1 ff ff       	callq  400e10 <wprintw@plt>
  402cb0:	48 8b 45 e0          	mov    -0x20(%rbp),%rax
  402cb4:	8b 48 04             	mov    0x4(%rax),%ecx
  402cb7:	48 8b 45 e0          	mov    -0x20(%rbp),%rax
  402cbb:	8b 50 04             	mov    0x4(%rax),%edx
  402cbe:	48 8b 45 d8          	mov    -0x28(%rbp),%rax
  402cc2:	48 8b 40 10          	mov    0x10(%rax),%rax
  402cc6:	be b0 34 40 00       	mov    $0x4034b0,%esi
  402ccb:	48 89 c7             	mov    %rax,%rdi
  402cce:	b8 00 00 00 00       	mov    $0x0,%eax
  402cd3:	e8 38 e1 ff ff       	callq  400e10 <wprintw@plt>
  402cd8:	48 8b 45 e0          	mov    -0x20(%rbp),%rax
  402cdc:	8b 50 0c             	mov    0xc(%rax),%edx
  402cdf:	48 8b 45 d8          	mov    -0x28(%rbp),%rax
  402ce3:	48 8b 40 10          	mov    0x10(%rax),%rax
  402ce7:	be c3 34 40 00       	mov    $0x4034c3,%esi
  402cec:	48 89 c7             	mov    %rax,%rdi
  402cef:	b8 00 00 00 00       	mov    $0x0,%eax
  402cf4:	e8 17 e1 ff ff       	callq  400e10 <wprintw@plt>
  402cf9:	c7 45 ec 00 00 00 00 	movl   $0x0,-0x14(%rbp)
  402d00:	e9 95 00 00 00       	jmpq   402d9a <reg_console_main_loop+0x161>
  402d05:	8b 55 ec             	mov    -0x14(%rbp),%edx
  402d08:	48 8b 45 e0          	mov    -0x20(%rbp),%rax
  402d0c:	48 63 d2             	movslq %edx,%rdx
  402d0f:	48 83 c2 04          	add    $0x4,%rdx
  402d13:	8b 1c 90             	mov    (%rax,%rdx,4),%ebx
  402d16:	8b 55 ec             	mov    -0x14(%rbp),%edx
  402d19:	48 8b 45 e0          	mov    -0x20(%rbp),%rax
  402d1d:	48 63 d2             	movslq %edx,%rdx
  402d20:	48 83 c2 04          	add    $0x4,%rdx
  402d24:	8b 0c 90             	mov    (%rax,%rdx,4),%ecx
  402d27:	48 8b 45 d8          	mov    -0x28(%rbp),%rax
  402d2b:	48 8b 40 10          	mov    0x10(%rax),%rax
  402d2f:	8b 55 ec             	mov    -0x14(%rbp),%edx
  402d32:	41 89 d8             	mov    %ebx,%r8d
  402d35:	be d3 34 40 00       	mov    $0x4034d3,%esi
  402d3a:	48 89 c7             	mov    %rax,%rdi
  402d3d:	b8 00 00 00 00       	mov    $0x0,%eax
  402d42:	e8 c9 e0 ff ff       	callq  400e10 <wprintw@plt>
  402d47:	8b 45 ec             	mov    -0x14(%rbp),%eax
  402d4a:	8d 50 10             	lea    0x10(%rax),%edx
  402d4d:	48 8b 45 e0          	mov    -0x20(%rbp),%rax
  402d51:	48 63 d2             	movslq %edx,%rdx
  402d54:	48 83 c2 04          	add    $0x4,%rdx
  402d58:	8b 0c 90             	mov    (%rax,%rdx,4),%ecx
  402d5b:	8b 45 ec             	mov    -0x14(%rbp),%eax
  402d5e:	8d 50 10             	lea    0x10(%rax),%edx
  402d61:	48 8b 45 e0          	mov    -0x20(%rbp),%rax
  402d65:	48 63 d2             	movslq %edx,%rdx
  402d68:	48 83 c2 04          	add    $0x4,%rdx
  402d6c:	8b 14 90             	mov    (%rax,%rdx,4),%edx
  402d6f:	8b 45 ec             	mov    -0x14(%rbp),%eax
  402d72:	8d 58 10             	lea    0x10(%rax),%ebx
  402d75:	48 8b 45 d8          	mov    -0x28(%rbp),%rax
  402d79:	48 8b 40 10          	mov    0x10(%rax),%rax
  402d7d:	41 89 c8             	mov    %ecx,%r8d
  402d80:	89 d1                	mov    %edx,%ecx
  402d82:	89 da                	mov    %ebx,%edx
  402d84:	be eb 34 40 00       	mov    $0x4034eb,%esi
  402d89:	48 89 c7             	mov    %rax,%rdi
  402d8c:	b8 00 00 00 00       	mov    $0x0,%eax
  402d91:	e8 7a e0 ff ff       	callq  400e10 <wprintw@plt>
  402d96:	83 45 ec 01          	addl   $0x1,-0x14(%rbp)
  402d9a:	83 7d ec 0f          	cmpl   $0xf,-0x14(%rbp)
  402d9e:	0f 8e 61 ff ff ff    	jle    402d05 <reg_console_main_loop+0xcc>
  402da4:	48 8b 45 d8          	mov    -0x28(%rbp),%rax
  402da8:	48 8b 40 10          	mov    0x10(%rax),%rax
  402dac:	48 89 c7             	mov    %rax,%rdi
  402daf:	e8 ec df ff ff       	callq  400da0 <wrefresh@plt>
  402db4:	48 8b 45 e0          	mov    -0x20(%rbp),%rax
  402db8:	8b 40 04             	mov    0x4(%rax),%eax
  402dbb:	89 45 e8             	mov    %eax,-0x18(%rbp)
  402dbe:	48 8b 45 d8          	mov    -0x28(%rbp),%rax
  402dc2:	48 8b 40 20          	mov    0x20(%rax),%rax
  402dc6:	48 89 c7             	mov    %rax,%rdi
  402dc9:	e8 e2 e0 ff ff       	callq  400eb0 <pthread_mutex_unlock@plt>
  402dce:	e9 8e fe ff ff       	jmpq   402c61 <reg_console_main_loop+0x28>

0000000000402dd3 <user_console_main_loop>:
  402dd3:	55                   	push   %rbp
  402dd4:	48 89 e5             	mov    %rsp,%rbp
  402dd7:	48 83 ec 30          	sub    $0x30,%rsp
  402ddb:	48 89 7d d8          	mov    %rdi,-0x28(%rbp)
  402ddf:	48 8b 45 d8          	mov    -0x28(%rbp),%rax
  402de3:	48 89 45 f8          	mov    %rax,-0x8(%rbp)
  402de7:	48 8b 45 f8          	mov    -0x8(%rbp),%rax
  402deb:	48 8b 40 10          	mov    0x10(%rax),%rax
  402def:	be 03 35 40 00       	mov    $0x403503,%esi
  402df4:	48 89 c7             	mov    %rax,%rdi
  402df7:	b8 00 00 00 00       	mov    $0x0,%eax
  402dfc:	e8 0f e0 ff ff       	callq  400e10 <wprintw@plt>
  402e01:	48 8b 45 f8          	mov    -0x8(%rbp),%rax
  402e05:	48 8b 40 10          	mov    0x10(%rax),%rax
  402e09:	48 89 c7             	mov    %rax,%rdi
  402e0c:	e8 8f df ff ff       	callq  400da0 <wrefresh@plt>
  402e11:	48 8b 45 f8          	mov    -0x8(%rbp),%rax
  402e15:	48 8b 40 10          	mov    0x10(%rax),%rax
  402e19:	48 8d 55 e0          	lea    -0x20(%rbp),%rdx
  402e1d:	be 05 35 40 00       	mov    $0x403505,%esi
  402e22:	48 89 c7             	mov    %rax,%rdi
  402e25:	b8 00 00 00 00       	mov    $0x0,%eax
  402e2a:	e8 71 e0 ff ff       	callq  400ea0 <wscanw@plt>
  402e2f:	48 8d 45 e0          	lea    -0x20(%rbp),%rax
  402e33:	48 89 c6             	mov    %rax,%rsi
  402e36:	bf 08 35 40 00       	mov    $0x403508,%edi
  402e3b:	e8 f0 df ff ff       	callq  400e30 <strcmp@plt>
  402e40:	85 c0                	test   %eax,%eax
  402e42:	75 0f                	jne    402e53 <user_console_main_loop+0x80>
  402e44:	e8 d7 de ff ff       	callq  400d20 <endwin@plt>
  402e49:	bf 00 00 00 00       	mov    $0x0,%edi
  402e4e:	e8 bd de ff ff       	callq  400d10 <exit@plt>
  402e53:	48 8d 45 e0          	lea    -0x20(%rbp),%rax
  402e57:	48 89 c6             	mov    %rax,%rsi
  402e5a:	bf 0d 35 40 00       	mov    $0x40350d,%edi
  402e5f:	e8 cc df ff ff       	callq  400e30 <strcmp@plt>
  402e64:	85 c0                	test   %eax,%eax
  402e66:	75 3a                	jne    402ea2 <user_console_main_loop+0xcf>
  402e68:	48 8b 45 f8          	mov    -0x8(%rbp),%rax
  402e6c:	48 8b 40 10          	mov    0x10(%rax),%rax
  402e70:	48 8d 55 e0          	lea    -0x20(%rbp),%rdx
  402e74:	be 12 35 40 00       	mov    $0x403512,%esi
  402e79:	48 89 c7             	mov    %rax,%rdi
  402e7c:	b8 00 00 00 00       	mov    $0x0,%eax
  402e81:	e8 8a df ff ff       	callq  400e10 <wprintw@plt>
  402e86:	48 8b 45 f8          	mov    -0x8(%rbp),%rax
  402e8a:	48 8b 40 10          	mov    0x10(%rax),%rax
  402e8e:	be 03 35 40 00       	mov    $0x403503,%esi
  402e93:	48 89 c7             	mov    %rax,%rdi
  402e96:	b8 00 00 00 00       	mov    $0x0,%eax
  402e9b:	e8 70 df ff ff       	callq  400e10 <wprintw@plt>
  402ea0:	eb 38                	jmp    402eda <user_console_main_loop+0x107>
  402ea2:	48 8b 45 f8          	mov    -0x8(%rbp),%rax
  402ea6:	48 8b 40 10          	mov    0x10(%rax),%rax
  402eaa:	48 8d 55 e0          	lea    -0x20(%rbp),%rdx
  402eae:	be 1c 35 40 00       	mov    $0x40351c,%esi
  402eb3:	48 89 c7             	mov    %rax,%rdi
  402eb6:	b8 00 00 00 00       	mov    $0x0,%eax
  402ebb:	e8 50 df ff ff       	callq  400e10 <wprintw@plt>
  402ec0:	48 8b 45 f8          	mov    -0x8(%rbp),%rax
  402ec4:	48 8b 40 10          	mov    0x10(%rax),%rax
  402ec8:	be 03 35 40 00       	mov    $0x403503,%esi
  402ecd:	48 89 c7             	mov    %rax,%rdi
  402ed0:	b8 00 00 00 00       	mov    $0x0,%eax
  402ed5:	e8 36 df ff ff       	callq  400e10 <wprintw@plt>
  402eda:	48 8b 45 f8          	mov    -0x8(%rbp),%rax
  402ede:	48 8b 40 10          	mov    0x10(%rax),%rax
  402ee2:	48 89 c7             	mov    %rax,%rdi
  402ee5:	e8 b6 de ff ff       	callq  400da0 <wrefresh@plt>
  402eea:	8b 05 34 14 20 00    	mov    0x201434(%rip),%eax        # 604324 <gsleep>
  402ef0:	89 c7                	mov    %eax,%edi
  402ef2:	e8 b9 de ff ff       	callq  400db0 <usleep@plt>
  402ef7:	e9 15 ff ff ff       	jmpq   402e11 <user_console_main_loop+0x3e>
  402efc:	90                   	nop
  402efd:	90                   	nop
  402efe:	90                   	nop
  402eff:	90                   	nop

0000000000402f00 <__libc_csu_fini>:
  402f00:	f3 c3                	repz retq 
  402f02:	66 66 66 66 66 2e 0f 	data32 data32 data32 data32 nopw %cs:0x0(%rax,%rax,1)
  402f09:	1f 84 00 00 00 00 00 

0000000000402f10 <__libc_csu_init>:
  402f10:	48 89 6c 24 d8       	mov    %rbp,-0x28(%rsp)
  402f15:	4c 89 64 24 e0       	mov    %r12,-0x20(%rsp)
  402f1a:	48 8d 2d df 10 20 00 	lea    0x2010df(%rip),%rbp        # 604000 <__CTOR_LIST__>
  402f21:	4c 8d 25 d8 10 20 00 	lea    0x2010d8(%rip),%r12        # 604000 <__CTOR_LIST__>
  402f28:	4c 89 6c 24 e8       	mov    %r13,-0x18(%rsp)
  402f2d:	4c 89 74 24 f0       	mov    %r14,-0x10(%rsp)
  402f32:	4c 89 7c 24 f8       	mov    %r15,-0x8(%rsp)
  402f37:	48 89 5c 24 d0       	mov    %rbx,-0x30(%rsp)
  402f3c:	48 83 ec 38          	sub    $0x38,%rsp
  402f40:	4c 29 e5             	sub    %r12,%rbp
  402f43:	41 89 fd             	mov    %edi,%r13d
  402f46:	49 89 f6             	mov    %rsi,%r14
  402f49:	48 c1 fd 03          	sar    $0x3,%rbp
  402f4d:	49 89 d7             	mov    %rdx,%r15
  402f50:	e8 33 dd ff ff       	callq  400c88 <_init>
  402f55:	48 85 ed             	test   %rbp,%rbp
  402f58:	74 1c                	je     402f76 <__libc_csu_init+0x66>
  402f5a:	31 db                	xor    %ebx,%ebx
  402f5c:	0f 1f 40 00          	nopl   0x0(%rax)
  402f60:	4c 89 fa             	mov    %r15,%rdx
  402f63:	4c 89 f6             	mov    %r14,%rsi
  402f66:	44 89 ef             	mov    %r13d,%edi
  402f69:	41 ff 14 dc          	callq  *(%r12,%rbx,8)
  402f6d:	48 83 c3 01          	add    $0x1,%rbx
  402f71:	48 39 eb             	cmp    %rbp,%rbx
  402f74:	72 ea                	jb     402f60 <__libc_csu_init+0x50>
  402f76:	48 8b 5c 24 08       	mov    0x8(%rsp),%rbx
  402f7b:	48 8b 6c 24 10       	mov    0x10(%rsp),%rbp
  402f80:	4c 8b 64 24 18       	mov    0x18(%rsp),%r12
  402f85:	4c 8b 6c 24 20       	mov    0x20(%rsp),%r13
  402f8a:	4c 8b 74 24 28       	mov    0x28(%rsp),%r14
  402f8f:	4c 8b 7c 24 30       	mov    0x30(%rsp),%r15
  402f94:	48 83 c4 38          	add    $0x38,%rsp
  402f98:	c3                   	retq   
  402f99:	90                   	nop
  402f9a:	90                   	nop
  402f9b:	90                   	nop
  402f9c:	90                   	nop
  402f9d:	90                   	nop
  402f9e:	90                   	nop
  402f9f:	90                   	nop

0000000000402fa0 <__do_global_ctors_aux>:
  402fa0:	55                   	push   %rbp
  402fa1:	48 89 e5             	mov    %rsp,%rbp
  402fa4:	53                   	push   %rbx
  402fa5:	48 83 ec 08          	sub    $0x8,%rsp
  402fa9:	48 8b 05 50 10 20 00 	mov    0x201050(%rip),%rax        # 604000 <__CTOR_LIST__>
  402fb0:	48 83 f8 ff          	cmp    $0xffffffffffffffff,%rax
  402fb4:	74 19                	je     402fcf <__do_global_ctors_aux+0x2f>
  402fb6:	bb 00 40 60 00       	mov    $0x604000,%ebx
  402fbb:	0f 1f 44 00 00       	nopl   0x0(%rax,%rax,1)
  402fc0:	48 83 eb 08          	sub    $0x8,%rbx
  402fc4:	ff d0                	callq  *%rax
  402fc6:	48 8b 03             	mov    (%rbx),%rax
  402fc9:	48 83 f8 ff          	cmp    $0xffffffffffffffff,%rax
  402fcd:	75 f1                	jne    402fc0 <__do_global_ctors_aux+0x20>
  402fcf:	48 83 c4 08          	add    $0x8,%rsp
  402fd3:	5b                   	pop    %rbx
  402fd4:	c9                   	leaveq 
  402fd5:	c3                   	retq   
  402fd6:	90                   	nop
  402fd7:	90                   	nop

Disassembly of section .fini:

0000000000402fd8 <_fini>:
  402fd8:	48 83 ec 08          	sub    $0x8,%rsp
  402fdc:	e8 3f df ff ff       	callq  400f20 <__do_global_dtors_aux>
  402fe1:	48 83 c4 08          	add    $0x8,%rsp
  402fe5:	c3                   	retq   
